ARM GAS  /tmp/cc05DVyr.s 			page 1


   1              		.cpu cortex-m3
   2              		.eabi_attribute 20, 1	@ Tag_ABI_FP_denormal
   3              		.eabi_attribute 21, 1	@ Tag_ABI_FP_exceptions
   4              		.eabi_attribute 23, 3	@ Tag_ABI_FP_number_model
   5              		.eabi_attribute 24, 1	@ Tag_ABI_align8_needed
   6              		.eabi_attribute 25, 1	@ Tag_ABI_align8_preserved
   7              		.eabi_attribute 26, 1	@ Tag_ABI_enum_size
   8              		.eabi_attribute 30, 4	@ Tag_ABI_optimization_goals
   9              		.eabi_attribute 34, 1	@ Tag_CPU_unaligned_access
  10              		.eabi_attribute 18, 4	@ Tag_ABI_PCS_wchar_t
  11              		.file	"bin_allocator.cpp"
  12              	@ GNU C++11 (15:9-2019-q4-0ubuntu1) version 9.2.1 20191025 (release) [ARM/arm-9-branch revision 277
  13              	@	compiled by GNU C version 9.2.1 20200306, GMP version 6.2.0, MPFR version 4.0.2, MPC version 1.1.
  14              	
  15              	@ GGC heuristics: --param ggc-min-expand=100 --param ggc-min-heapsize=131072
  16              	@ options passed: 
  17              	@ -I /home/ros/Downloads/opentx/radio/src/thirdparty/STM32F2xx_StdPeriph_Lib_V1.1.0/Libraries/STM32
  18              	@ -I /home/ros/Downloads/opentx/radio/src/thirdparty/STM32F2xx_StdPeriph_Lib_V1.1.0/Libraries/CMSIS
  19              	@ -I /home/ros/Downloads/opentx/radio/src/thirdparty/STM32F2xx_StdPeriph_Lib_V1.1.0/Libraries/CMSIS
  20              	@ -I /home/ros/Downloads/opentx/radio/src/targets/common/arm/stm32
  21              	@ -I /home/ros/Downloads/opentx/radio/src/thirdparty/STM32_USB-Host-Device_Lib_V2.2.0/Libraries/STM
  22              	@ -I /home/ros/Downloads/opentx/radio/src/thirdparty/STM32_USB-Host-Device_Lib_V2.2.0/Libraries/STM
  23              	@ -I /home/ros/Downloads/opentx/radio/src/thirdparty/STM32_USB-Host-Device_Lib_V2.2.0/Libraries/STM
  24              	@ -I /home/ros/Downloads/opentx/radio/src/thirdparty/STM32_USB-Host-Device_Lib_V2.2.0/Libraries/STM
  25              	@ -I /home/ros/Downloads/opentx/radio/src/thirdparty/STM32_USB-Host-Device_Lib_V2.2.0/Libraries/STM
  26              	@ -I /home/ros/Downloads/opentx/radio/src/thirdparty/CoOS
  27              	@ -I /home/ros/Downloads/opentx/radio/src/thirdparty/CoOS/kernel
  28              	@ -I /home/ros/Downloads/opentx/radio/src/thirdparty/CoOS/portable
  29              	@ -I /home/ros/Downloads/opentx/radio/src/targets/taranis
  30              	@ -I /home/ros/Downloads/opentx/radio/src/thirdparty
  31              	@ -I /home/ros/Downloads/opentx/radio/src
  32              	@ -I /home/ros/Downloads/opentx/build-taranis-debug/radio/src
  33              	@ -I /home/ros/Downloads/opentx/build-taranis-debug/radio/src/bitmaps/128x64
  34              	@ -I /home/ros/Downloads/opentx/radio/src/gui
  35              	@ -I /home/ros/Downloads/opentx/radio/src/gui/128x64
  36              	@ -I /home/ros/Downloads/opentx/radio/src/thirdparty/Lua/src
  37              	@ -I /home/ros/Downloads/opentx/radio/src/thirdparty/FatFs
  38              	@ -I /home/ros/Downloads/opentx/radio/src/thirdparty/FatFs/option
  39              	@ -I /home/ros/Downloads/opentx/build-taranis-debug/radio/src/targets/common/arm/stm32/bootloader
  40              	@ -imultilib thumb/v7-m/nofp -D__USES_INITFINI__ -D AUDIO -D AUTOSOURCE
  41              	@ -D AUTOSWITCH -D BATTGRAPH -D BLUETOOTH -D BLUETOOTH_PROBE -D BOLD_FONT
  42              	@ -D CORRECT_NEGATIVE_SHIFTS -D CPUARM -D CROSSFIRE -D CURVES -D DBLKEYS
  43              	@ -D DEBUG -D DEFAULT_TEMPLATE_SETUP=0 -D DSM2 -D EEPROM
  44              	@ -D EEPROM_CONVERSIONS=218 -D EEPROM_RLC -D EEPROM_VARIANT=0x4000
  45              	@ -D FLAVOUR="x7" -D FLIGHT_MODES -D FONT= -D GHOST -D GPS -D GRAPHICS
  46              	@ -D GUI -D GVARS -D HAPTIC -D HARDWARE_EXTERNAL_MODULE
  47              	@ -D HARDWARE_EXTERNAL_MODULE_SIZE_STD -D HARDWARE_INTERNAL_MODULE
  48              	@ -D HARDWARE_TRIMS -D HELI -D INTERNAL_MODULE_PXX1 -D LUA -D LUA_COMPILER
  49              	@ -D LUA_INPUTS -D LUA_MODEL_SCRIPTS -D MANUFACTURER_FRSKY
  50              	@ -D MODULE_PROTOCOL_D8 -D MODULE_PROTOCOL_FCC -D MODULE_PROTOCOL_LBT
  51              	@ -D MULTIMODULE -D NAVIGATION_X7 -D OVERRIDE_CHANNEL_FUNCTION
  52              	@ -D PCBTARANIS -D PCBX7 -D POPUP_LEVEL=2 -D PPM -D PPM_CENTER_ADJUSTABLE
  53              	@ -D PPM_LIMITS_SYMETRICAL -D PPM_UNIT_PERCENT_PREC1 -D PWR_BUTTON_PRESS
  54              	@ -D PXX -D PXX1 -D RADIO_X7 -D REQUIRED_SDCARD_VERSION="2.3V0039"
  55              	@ -D RTCLOCK -D RTOS_COOS -D SBUS -D SBUS_TRAINER -D SDCARD -D SIMU_AUDIO
  56              	@ -D SOFTWARE_VOLUME -D SPLASH -D STM32 -D STM32F2 -D THRTRACE -D TIMERS=3
  57              	@ -D TRACE_SIMPGMSPACE -D TRANSLATIONS="EN" -D TRANSLATIONS_EN
ARM GAS  /tmp/cc05DVyr.s 			page 2


  58              	@ -D USB_SERIAL -D USE_BIN_ALLOCATOR -D VARIO -D VOICE -D WATCHDOG -D XJT
  59              	@ -D HSE_VALUE=12000000
  60              	@ /home/ros/Downloads/opentx/radio/src/bin_allocator.cpp -mcpu=cortex-m3
  61              	@ -mthumb -mfloat-abi=soft -march=armv7-m
  62              	@ -auxbase-strip CMakeFiles/firmware.dir/bin_allocator.cpp.o -gdwarf-2 -g
  63              	@ -Os -Wall -Wno-address-of-packed-member -Wno-strict-aliasing -Wformat=1
  64              	@ -Wreturn-type -Wunused -Wuninitialized -Wunknown-pragmas -Wno-switch
  65              	@ -Wtype-limits -std=gnu++11 -fomit-frame-pointer -fverbose-asm
  66              	@ -fno-exceptions -fdata-sections -ffunction-sections
  67              	@ options enabled:  -faggressive-loop-optimizations -fassume-phsa
  68              	@ -fauto-inc-dec -fbranch-count-reg -fcaller-saves -fcode-hoisting
  69              	@ -fcombine-stack-adjustments -fcommon -fcompare-elim -fcprop-registers
  70              	@ -fcrossjumping -fcse-follow-jumps -fdata-sections -fdefer-pop
  71              	@ -fdelete-null-pointer-checks -fdevirtualize -fdevirtualize-speculatively
  72              	@ -fdwarf2-cfi-asm -fearly-inlining -feliminate-unused-debug-types
  73              	@ -fexpensive-optimizations -fforward-propagate -ffp-int-builtin-inexact
  74              	@ -ffunction-cse -ffunction-sections -fgcse -fgcse-lm -fgnu-runtime
  75              	@ -fgnu-unique -fguess-branch-probability -fhoist-adjacent-loads -fident
  76              	@ -fif-conversion -fif-conversion2 -findirect-inlining -finline
  77              	@ -finline-atomics -finline-functions -finline-functions-called-once
  78              	@ -finline-small-functions -fipa-bit-cp -fipa-cp -fipa-icf
  79              	@ -fipa-icf-functions -fipa-icf-variables -fipa-profile -fipa-pure-const
  80              	@ -fipa-ra -fipa-reference -fipa-reference-addressable -fipa-sra
  81              	@ -fipa-stack-alignment -fipa-vrp -fira-hoist-pressure
  82              	@ -fira-share-save-slots -fira-share-spill-slots
  83              	@ -fisolate-erroneous-paths-dereference -fivopts -fkeep-static-consts
  84              	@ -fleading-underscore -flifetime-dse -flra-remat -flto-odr-type-merging
  85              	@ -fmath-errno -fmerge-constants -fmerge-debug-strings
  86              	@ -fmove-loop-invariants -fomit-frame-pointer -foptimize-sibling-calls
  87              	@ -fpartial-inlining -fpeephole -fpeephole2 -fplt -fprefetch-loop-arrays
  88              	@ -freg-struct-return -freorder-blocks -freorder-functions
  89              	@ -frerun-cse-after-loop -fsched-critical-path-heuristic
  90              	@ -fsched-dep-count-heuristic -fsched-group-heuristic -fsched-interblock
  91              	@ -fsched-last-insn-heuristic -fsched-pressure -fsched-rank-heuristic
  92              	@ -fsched-spec -fsched-spec-insn-heuristic -fsched-stalled-insns-dep
  93              	@ -fschedule-insns2 -fsection-anchors -fsemantic-interposition
  94              	@ -fshow-column -fshrink-wrap-separate -fsigned-zeros
  95              	@ -fsplit-ivs-in-unroller -fsplit-wide-types -fssa-backprop -fssa-phiopt
  96              	@ -fstdarg-opt -fstore-merging -fstrict-aliasing
  97              	@ -fstrict-volatile-bitfields -fsync-libcalls -fthread-jumps
  98              	@ -ftoplevel-reorder -ftrapping-math -ftree-bit-ccp -ftree-builtin-call-dce
  99              	@ -ftree-ccp -ftree-ch -ftree-coalesce-vars -ftree-copy-prop -ftree-cselim
 100              	@ -ftree-dce -ftree-dominator-opts -ftree-dse -ftree-forwprop -ftree-fre
 101              	@ -ftree-loop-if-convert -ftree-loop-im -ftree-loop-ivcanon
 102              	@ -ftree-loop-optimize -ftree-parallelize-loops= -ftree-phiprop -ftree-pre
 103              	@ -ftree-pta -ftree-reassoc -ftree-scev-cprop -ftree-sink -ftree-slsr
 104              	@ -ftree-sra -ftree-switch-conversion -ftree-tail-merge -ftree-ter
 105              	@ -ftree-vrp -funit-at-a-time -fvar-tracking -fvar-tracking-assignments
 106              	@ -fverbose-asm -fzero-initialized-in-bss -masm-syntax-unified -mbe32
 107              	@ -mfix-cortex-m3-ldrd -mlittle-endian -mpic-data-is-text-relative
 108              	@ -msched-prolog -mthumb -munaligned-access -mvectorize-with-neon-quad
 109              	
 110              		.text
 111              	.Ltext0:
 112              		.cfi_sections	.debug_frame
 113              		.section	.text._Z8bin_freePv,"ax",%progbits
 114              		.align	1
ARM GAS  /tmp/cc05DVyr.s 			page 3


 115              		.global	_Z8bin_freePv
 116              		.arch armv7-m
 117              		.syntax unified
 118              		.thumb
 119              		.thumb_func
 120              		.fpu softvfp
 121              		.type	_Z8bin_freePv, %function
 122              	_Z8bin_freePv:
 123              	.LVL0:
 124              	.LFB709:
 125              		.file 1 "/home/ros/Downloads/opentx/radio/src/bin_allocator.cpp"
   1:/home/ros/Downloads/opentx/radio/src/bin_allocator.cpp **** /*
   2:/home/ros/Downloads/opentx/radio/src/bin_allocator.cpp ****  * Copyright (C) OpenTX
   3:/home/ros/Downloads/opentx/radio/src/bin_allocator.cpp ****  *
   4:/home/ros/Downloads/opentx/radio/src/bin_allocator.cpp ****  * Based on code named
   5:/home/ros/Downloads/opentx/radio/src/bin_allocator.cpp ****  *   th9x - http://code.google.com/p/th9x 
   6:/home/ros/Downloads/opentx/radio/src/bin_allocator.cpp ****  *   er9x - http://code.google.com/p/er9x
   7:/home/ros/Downloads/opentx/radio/src/bin_allocator.cpp ****  *   gruvin9x - http://code.google.com/p/gruvin9x
   8:/home/ros/Downloads/opentx/radio/src/bin_allocator.cpp ****  *
   9:/home/ros/Downloads/opentx/radio/src/bin_allocator.cpp ****  * License GPLv2: http://www.gnu.org/licenses/gpl-2.0.html
  10:/home/ros/Downloads/opentx/radio/src/bin_allocator.cpp ****  *
  11:/home/ros/Downloads/opentx/radio/src/bin_allocator.cpp ****  * This program is free software; you can redistribute it and/or modify
  12:/home/ros/Downloads/opentx/radio/src/bin_allocator.cpp ****  * it under the terms of the GNU General Public License version 2 as
  13:/home/ros/Downloads/opentx/radio/src/bin_allocator.cpp ****  * published by the Free Software Foundation.
  14:/home/ros/Downloads/opentx/radio/src/bin_allocator.cpp ****  *
  15:/home/ros/Downloads/opentx/radio/src/bin_allocator.cpp ****  * This program is distributed in the hope that it will be useful,
  16:/home/ros/Downloads/opentx/radio/src/bin_allocator.cpp ****  * but WITHOUT ANY WARRANTY; without even the implied warranty of
  17:/home/ros/Downloads/opentx/radio/src/bin_allocator.cpp ****  * MERCHANTABILITY or FITNESS FOR A PARTICULAR PURPOSE.  See the
  18:/home/ros/Downloads/opentx/radio/src/bin_allocator.cpp ****  * GNU General Public License for more details.
  19:/home/ros/Downloads/opentx/radio/src/bin_allocator.cpp ****  */
  20:/home/ros/Downloads/opentx/radio/src/bin_allocator.cpp **** 
  21:/home/ros/Downloads/opentx/radio/src/bin_allocator.cpp **** #include <stdlib.h>
  22:/home/ros/Downloads/opentx/radio/src/bin_allocator.cpp **** #include <string.h>
  23:/home/ros/Downloads/opentx/radio/src/bin_allocator.cpp **** #include "opentx.h"
  24:/home/ros/Downloads/opentx/radio/src/bin_allocator.cpp **** #include "bin_allocator.h"
  25:/home/ros/Downloads/opentx/radio/src/bin_allocator.cpp **** 
  26:/home/ros/Downloads/opentx/radio/src/bin_allocator.cpp **** 
  27:/home/ros/Downloads/opentx/radio/src/bin_allocator.cpp **** BinAllocator_slots1 slots1;
  28:/home/ros/Downloads/opentx/radio/src/bin_allocator.cpp **** BinAllocator_slots2 slots2;
  29:/home/ros/Downloads/opentx/radio/src/bin_allocator.cpp **** 
  30:/home/ros/Downloads/opentx/radio/src/bin_allocator.cpp **** #if defined(DEBUG)
  31:/home/ros/Downloads/opentx/radio/src/bin_allocator.cpp **** int SimulateMallocFailure = 0;    //set this to simulate allocation failure
  32:/home/ros/Downloads/opentx/radio/src/bin_allocator.cpp **** #endif 
  33:/home/ros/Downloads/opentx/radio/src/bin_allocator.cpp **** 
  34:/home/ros/Downloads/opentx/radio/src/bin_allocator.cpp **** bool bin_free(void * ptr)
  35:/home/ros/Downloads/opentx/radio/src/bin_allocator.cpp **** {
 126              		.loc 1 35 1 view -0
 127              		.cfi_startproc
 128              		@ args = 0, pretend = 0, frame = 0
 129              		@ frame_needed = 0, uses_anonymous_args = 0
 130              		@ link register save eliminated.
  36:/home/ros/Downloads/opentx/radio/src/bin_allocator.cpp ****   //return TRUE if ours
  37:/home/ros/Downloads/opentx/radio/src/bin_allocator.cpp ****   return slots1.free(ptr) || slots2.free(ptr);
 131              		.loc 1 37 3 view .LVU1
 132              	.LBB46:
 133              	.LBI46:
 134              		.file 2 "/home/ros/Downloads/opentx/radio/src/bin_allocator.h"
ARM GAS  /tmp/cc05DVyr.s 			page 4


   1:/home/ros/Downloads/opentx/radio/src/bin_allocator.h **** /*
   2:/home/ros/Downloads/opentx/radio/src/bin_allocator.h ****  * Copyright (C) OpenTX
   3:/home/ros/Downloads/opentx/radio/src/bin_allocator.h ****  *
   4:/home/ros/Downloads/opentx/radio/src/bin_allocator.h ****  * Based on code named
   5:/home/ros/Downloads/opentx/radio/src/bin_allocator.h ****  *   th9x - http://code.google.com/p/th9x 
   6:/home/ros/Downloads/opentx/radio/src/bin_allocator.h ****  *   er9x - http://code.google.com/p/er9x
   7:/home/ros/Downloads/opentx/radio/src/bin_allocator.h ****  *   gruvin9x - http://code.google.com/p/gruvin9x
   8:/home/ros/Downloads/opentx/radio/src/bin_allocator.h ****  *
   9:/home/ros/Downloads/opentx/radio/src/bin_allocator.h ****  * License GPLv2: http://www.gnu.org/licenses/gpl-2.0.html
  10:/home/ros/Downloads/opentx/radio/src/bin_allocator.h ****  *
  11:/home/ros/Downloads/opentx/radio/src/bin_allocator.h ****  * This program is free software; you can redistribute it and/or modify
  12:/home/ros/Downloads/opentx/radio/src/bin_allocator.h ****  * it under the terms of the GNU General Public License version 2 as
  13:/home/ros/Downloads/opentx/radio/src/bin_allocator.h ****  * published by the Free Software Foundation.
  14:/home/ros/Downloads/opentx/radio/src/bin_allocator.h ****  *
  15:/home/ros/Downloads/opentx/radio/src/bin_allocator.h ****  * This program is distributed in the hope that it will be useful,
  16:/home/ros/Downloads/opentx/radio/src/bin_allocator.h ****  * but WITHOUT ANY WARRANTY; without even the implied warranty of
  17:/home/ros/Downloads/opentx/radio/src/bin_allocator.h ****  * MERCHANTABILITY or FITNESS FOR A PARTICULAR PURPOSE.  See the
  18:/home/ros/Downloads/opentx/radio/src/bin_allocator.h ****  * GNU General Public License for more details.
  19:/home/ros/Downloads/opentx/radio/src/bin_allocator.h ****  */
  20:/home/ros/Downloads/opentx/radio/src/bin_allocator.h **** 
  21:/home/ros/Downloads/opentx/radio/src/bin_allocator.h **** #ifndef _BIN_ALLOCATOR_H_
  22:/home/ros/Downloads/opentx/radio/src/bin_allocator.h **** #define _BIN_ALLOCATOR_H_
  23:/home/ros/Downloads/opentx/radio/src/bin_allocator.h **** 
  24:/home/ros/Downloads/opentx/radio/src/bin_allocator.h **** #include "debug.h"
  25:/home/ros/Downloads/opentx/radio/src/bin_allocator.h **** 
  26:/home/ros/Downloads/opentx/radio/src/bin_allocator.h **** template <int SIZE_SLOT, int NUM_BINS> class BinAllocator {
  27:/home/ros/Downloads/opentx/radio/src/bin_allocator.h **** private:
  28:/home/ros/Downloads/opentx/radio/src/bin_allocator.h ****   PACK(struct Bin {
  29:/home/ros/Downloads/opentx/radio/src/bin_allocator.h ****     char data[SIZE_SLOT];
  30:/home/ros/Downloads/opentx/radio/src/bin_allocator.h ****     bool Used;
  31:/home/ros/Downloads/opentx/radio/src/bin_allocator.h ****   });
  32:/home/ros/Downloads/opentx/radio/src/bin_allocator.h ****   struct Bin Bins[NUM_BINS];
  33:/home/ros/Downloads/opentx/radio/src/bin_allocator.h ****   int NoUsedBins;
  34:/home/ros/Downloads/opentx/radio/src/bin_allocator.h **** public:
  35:/home/ros/Downloads/opentx/radio/src/bin_allocator.h ****   BinAllocator() : NoUsedBins(0) {
  36:/home/ros/Downloads/opentx/radio/src/bin_allocator.h ****     memclear(Bins, sizeof(Bins));
  37:/home/ros/Downloads/opentx/radio/src/bin_allocator.h ****   }
  38:/home/ros/Downloads/opentx/radio/src/bin_allocator.h ****   bool free(void * ptr) {
 135              		.loc 2 38 8 view .LVU2
 136              	.LBB47:
  39:/home/ros/Downloads/opentx/radio/src/bin_allocator.h ****     for (size_t n = 0; n < NUM_BINS; ++n) {
 137              		.loc 2 39 26 view .LVU3
 138 0000 164A     		ldr	r2, .L10	@ ivtmp.51,
 139              	@ /home/ros/Downloads/opentx/radio/src/bin_allocator.h:39:     for (size_t n = 0; n < NUM_BINS; ++n
 140              		.loc 2 39 17 is_stmt 0 view .LVU4
 141 0002 0023     		movs	r3, #0	@ n,
 142 0004 1146     		mov	r1, r2	@ tmp155, ivtmp.51
 143              	.LVL1:
 144              	.L4:
 145              	@ /home/ros/Downloads/opentx/radio/src/bin_allocator.h:40:       if (ptr == Bins[n].data) {
  40:/home/ros/Downloads/opentx/radio/src/bin_allocator.h ****       if (ptr == Bins[n].data) {
 146              		.loc 2 40 7 view .LVU5
 147 0006 9042     		cmp	r0, r2	@ ptr, ivtmp.51
 148 0008 0AD1     		bne	.L2		@,
 149              	@ /home/ros/Downloads/opentx/radio/src/bin_allocator.h:41:         Bins[n].Used = false;
  41:/home/ros/Downloads/opentx/radio/src/bin_allocator.h ****         Bins[n].Used = false;
 150              		.loc 2 41 9 view .LVU6
ARM GAS  /tmp/cc05DVyr.s 			page 5


 151 000a 1C22     		movs	r2, #28	@ tmp124,
 152 000c 02FB0313 		mla	r3, r2, r3, r1	@ tmp125, tmp124, n, tmp155
 153              	.LVL2:
 154              		.loc 2 41 9 view .LVU7
 155 0010 0022     		movs	r2, #0	@ tmp127,
 156 0012 DA76     		strb	r2, [r3, #27]	@ tmp127, slots1.Bins[n_33].Used
 157              	@ /home/ros/Downloads/opentx/radio/src/bin_allocator.h:42:         --NoUsedBins;
  42:/home/ros/Downloads/opentx/radio/src/bin_allocator.h ****         --NoUsedBins;
 158              		.loc 2 42 9 view .LVU8
 159 0014 124A     		ldr	r2, .L10+4	@ tmp131,
 160 0016 1368     		ldr	r3, [r2]	@ slots1.NoUsedBins, slots1.NoUsedBins
 161 0018 013B     		subs	r3, r3, #1	@ tmp135, slots1.NoUsedBins,
 162 001a 1360     		str	r3, [r2]	@ tmp135, slots1.NoUsedBins
 163              	.LVL3:
 164              	.L9:
 165              		.loc 2 42 9 view .LVU9
 166              	.LBE47:
 167              	.LBE46:
 168              	.LBB49:
 169              	.LBB50:
 170              	@ /home/ros/Downloads/opentx/radio/src/bin_allocator.cpp:37:   return slots1.free(ptr) || slots2.fr
 171              		.loc 1 37 27 view .LVU10
 172 001c 0120     		movs	r0, #1	@ <retval>,
 173              	.LVL4:
 174              		.loc 1 37 27 view .LVU11
 175 001e 7047     		bx	lr	@
 176              	.LVL5:
 177              	.L2:
 178              		.loc 1 37 27 view .LVU12
 179              	.LBE50:
 180              	.LBE49:
 181              	.LBB54:
 182              	.LBB48:
  39:/home/ros/Downloads/opentx/radio/src/bin_allocator.h ****       if (ptr == Bins[n].data) {
 183              		.loc 2 39 5 is_stmt 1 view .LVU13
 184 0020 0133     		adds	r3, r3, #1	@ n, n,
 185              	.LVL6:
  39:/home/ros/Downloads/opentx/radio/src/bin_allocator.h ****       if (ptr == Bins[n].data) {
 186              		.loc 2 39 26 view .LVU14
 187 0022 C82B     		cmp	r3, #200	@ n,
 188 0024 02F11C02 		add	r2, r2, #28	@ ivtmp.51, ivtmp.51,
 189 0028 EDD1     		bne	.L4		@,
 190 002a 0E4A     		ldr	r2, .L10+8	@ ivtmp.44,
 191              	.LBE48:
 192              	.LBE54:
 193              	.LBB55:
 194              	.LBB53:
 195              	.LBB51:
 196              	.LBB52:
 197              	@ /home/ros/Downloads/opentx/radio/src/bin_allocator.h:39:     for (size_t n = 0; n < NUM_BINS; ++n
  39:/home/ros/Downloads/opentx/radio/src/bin_allocator.h ****       if (ptr == Bins[n].data) {
 198              		.loc 2 39 17 is_stmt 0 view .LVU15
 199 002c 0023     		movs	r3, #0	@ n,
 200              	.LVL7:
  39:/home/ros/Downloads/opentx/radio/src/bin_allocator.h ****       if (ptr == Bins[n].data) {
 201              		.loc 2 39 17 view .LVU16
 202 002e 1146     		mov	r1, r2	@ tmp156, ivtmp.44
ARM GAS  /tmp/cc05DVyr.s 			page 6


 203              	.LVL8:
 204              	.L6:
 205              	@ /home/ros/Downloads/opentx/radio/src/bin_allocator.h:40:       if (ptr == Bins[n].data) {
  40:/home/ros/Downloads/opentx/radio/src/bin_allocator.h ****         Bins[n].Used = false;
 206              		.loc 2 40 7 view .LVU17
 207 0030 9042     		cmp	r0, r2	@ ptr, ivtmp.44
 208 0032 0BD1     		bne	.L5		@,
 209              	@ /home/ros/Downloads/opentx/radio/src/bin_allocator.h:41:         Bins[n].Used = false;
  41:/home/ros/Downloads/opentx/radio/src/bin_allocator.h ****         --NoUsedBins;
 210              		.loc 2 41 9 view .LVU18
 211 0034 5C22     		movs	r2, #92	@ tmp139,
 212 0036 02FB0313 		mla	r3, r2, r3, r1	@ tmp140, tmp139, n, tmp156
 213              	.LVL9:
  41:/home/ros/Downloads/opentx/radio/src/bin_allocator.h ****         --NoUsedBins;
 214              		.loc 2 41 9 view .LVU19
 215 003a 0022     		movs	r2, #0	@ tmp142,
 216 003c 83F85B20 		strb	r2, [r3, #91]	@ tmp142, slots2.Bins[n_3].Used
 217              	@ /home/ros/Downloads/opentx/radio/src/bin_allocator.h:42:         --NoUsedBins;
 218              		.loc 2 42 9 view .LVU20
 219 0040 41F2F812 		movw	r2, #4600	@ tmp146,
 220 0044 8B58     		ldr	r3, [r1, r2]	@ slots2.NoUsedBins, slots2.NoUsedBins
 221 0046 013B     		subs	r3, r3, #1	@ tmp152, slots2.NoUsedBins,
 222 0048 8B50     		str	r3, [r1, r2]	@ tmp152, slots2.NoUsedBins
 223 004a E7E7     		b	.L9		@
 224              	.LVL10:
 225              	.L5:
  39:/home/ros/Downloads/opentx/radio/src/bin_allocator.h ****       if (ptr == Bins[n].data) {
 226              		.loc 2 39 5 is_stmt 1 view .LVU21
 227 004c 0133     		adds	r3, r3, #1	@ n, n,
 228              	.LVL11:
  39:/home/ros/Downloads/opentx/radio/src/bin_allocator.h ****       if (ptr == Bins[n].data) {
 229              		.loc 2 39 26 view .LVU22
 230 004e 322B     		cmp	r3, #50	@ n,
 231 0050 02F15C02 		add	r2, r2, #92	@ ivtmp.44, ivtmp.44,
 232 0054 ECD1     		bne	.L6		@,
 233              	.LBE52:
 234              	.LBE51:
 235              	@ /home/ros/Downloads/opentx/radio/src/bin_allocator.cpp:37:   return slots1.free(ptr) || slots2.fr
 236              		.loc 1 37 27 is_stmt 0 view .LVU23
 237 0056 0020     		movs	r0, #0	@ <retval>,
 238              	.LVL12:
 239              		.loc 1 37 27 view .LVU24
 240              	.LBE53:
 241              	.LBE55:
 242              	@ /home/ros/Downloads/opentx/radio/src/bin_allocator.cpp:38: }
  38:/home/ros/Downloads/opentx/radio/src/bin_allocator.cpp **** }
 243              		.loc 1 38 1 view .LVU25
 244 0058 7047     		bx	lr	@
 245              	.L11:
 246 005a 00BF     		.align	2
 247              	.L10:
 248 005c 00000000 		.word	slots1
 249 0060 E0150000 		.word	slots1+5600
 250 0064 00000000 		.word	slots2
 251              		.cfi_endproc
 252              	.LFE709:
 253              		.size	_Z8bin_freePv, .-_Z8bin_freePv
ARM GAS  /tmp/cc05DVyr.s 			page 7


 254              		.section	.text._Z10bin_mallocj,"ax",%progbits
 255              		.align	1
 256              		.global	_Z10bin_mallocj
 257              		.syntax unified
 258              		.thumb
 259              		.thumb_func
 260              		.fpu softvfp
 261              		.type	_Z10bin_mallocj, %function
 262              	_Z10bin_mallocj:
 263              	.LVL13:
 264              	.LFB710:
  39:/home/ros/Downloads/opentx/radio/src/bin_allocator.cpp **** 
  40:/home/ros/Downloads/opentx/radio/src/bin_allocator.cpp **** void * bin_malloc(size_t size) {
 265              		.loc 1 40 32 is_stmt 1 view -0
 266              		.cfi_startproc
 267              		@ args = 0, pretend = 0, frame = 0
 268              		@ frame_needed = 0, uses_anonymous_args = 0
  41:/home/ros/Downloads/opentx/radio/src/bin_allocator.cpp ****   //try to allocate from our space
  42:/home/ros/Downloads/opentx/radio/src/bin_allocator.cpp ****   void * res = slots1.malloc(size);
 269              		.loc 1 42 3 view .LVU27
 270              	.LBB64:
 271              	.LBI64:
  43:/home/ros/Downloads/opentx/radio/src/bin_allocator.h ****         // TRACE("\tBinAllocator<%d> free %lu ------", SIZE_SLOT, n);
  44:/home/ros/Downloads/opentx/radio/src/bin_allocator.h ****         return true;
  45:/home/ros/Downloads/opentx/radio/src/bin_allocator.h ****       }
  46:/home/ros/Downloads/opentx/radio/src/bin_allocator.h ****     }
  47:/home/ros/Downloads/opentx/radio/src/bin_allocator.h ****     return false;
  48:/home/ros/Downloads/opentx/radio/src/bin_allocator.h ****   }
  49:/home/ros/Downloads/opentx/radio/src/bin_allocator.h ****   bool is_member(void * ptr) {
  50:/home/ros/Downloads/opentx/radio/src/bin_allocator.h ****     return (ptr >= Bins[0].data && ptr <= Bins[NUM_BINS-1].data);
  51:/home/ros/Downloads/opentx/radio/src/bin_allocator.h ****   }
  52:/home/ros/Downloads/opentx/radio/src/bin_allocator.h ****   void * malloc(size_t size) {
 272              		.loc 2 52 10 view .LVU28
 273              	.LBB65:
 274              	@ /home/ros/Downloads/opentx/radio/src/bin_allocator.h:53:     if (size > SIZE_SLOT) {
  53:/home/ros/Downloads/opentx/radio/src/bin_allocator.h ****     if (size > SIZE_SLOT) {
 275              		.loc 2 53 5 is_stmt 0 view .LVU29
 276 0000 1B28     		cmp	r0, #27	@ size,
 277              	.LBE65:
 278              	.LBE64:
 279              	@ /home/ros/Downloads/opentx/radio/src/bin_allocator.cpp:40: void * bin_malloc(size_t size) {
  40:/home/ros/Downloads/opentx/radio/src/bin_allocator.cpp ****   //try to allocate from our space
 280              		.loc 1 40 32 view .LVU30
 281 0002 30B5     		push	{r4, r5, lr}	@
 282              	.LCFI0:
 283              		.cfi_def_cfa_offset 12
 284              		.cfi_offset 4, -12
 285              		.cfi_offset 5, -8
 286              		.cfi_offset 14, -4
 287              	.LBB70:
 288              	.LBB68:
 289              	@ /home/ros/Downloads/opentx/radio/src/bin_allocator.h:53:     if (size > SIZE_SLOT) {
 290              		.loc 2 53 5 view .LVU31
 291 0004 2CD8     		bhi	.L13		@,
 292              	@ /home/ros/Downloads/opentx/radio/src/bin_allocator.h:57:     if (NoUsedBins >= NUM_BINS) {
  54:/home/ros/Downloads/opentx/radio/src/bin_allocator.h ****       // TRACE("BinAllocator<%d> malloc [%lu] size > SIZE_SLOT", SIZE_SLOT, size);
  55:/home/ros/Downloads/opentx/radio/src/bin_allocator.h ****       return 0;
ARM GAS  /tmp/cc05DVyr.s 			page 8


  56:/home/ros/Downloads/opentx/radio/src/bin_allocator.h ****     }
  57:/home/ros/Downloads/opentx/radio/src/bin_allocator.h ****     if (NoUsedBins >= NUM_BINS) {
 293              		.loc 2 57 9 view .LVU32
 294 0006 1B4B     		ldr	r3, .L27	@ tmp128,
 295 0008 1A68     		ldr	r2, [r3]	@ _9, slots1.NoUsedBins
 296 000a A3F5AF54 		sub	r4, r3, #5600	@ ivtmp.68, tmp128,
 297              	@ /home/ros/Downloads/opentx/radio/src/bin_allocator.h:57:     if (NoUsedBins >= NUM_BINS) {
 298              		.loc 2 57 5 view .LVU33
 299 000e C72A     		cmp	r2, #199	@ _9,
 300 0010 10DC     		bgt	.L14		@,
 301 0012 2146     		mov	r1, r4	@ ivtmp.68, ivtmp.68
 302              	.LBB66:
 303              	@ /home/ros/Downloads/opentx/radio/src/bin_allocator.h:61:     for (size_t n = 0; n < NUM_BINS; ++n
  58:/home/ros/Downloads/opentx/radio/src/bin_allocator.h ****       // TRACE("BinAllocator<%d> malloc [%lu] no free slots", SIZE_SLOT, size);
  59:/home/ros/Downloads/opentx/radio/src/bin_allocator.h ****       return 0;
  60:/home/ros/Downloads/opentx/radio/src/bin_allocator.h ****     }
  61:/home/ros/Downloads/opentx/radio/src/bin_allocator.h ****     for (size_t n = 0; n < NUM_BINS; ++n) {
 304              		.loc 2 61 17 view .LVU34
 305 0014 0020     		movs	r0, #0	@ n,
 306              	.LVL14:
 307              	.L17:
 308              	@ /home/ros/Downloads/opentx/radio/src/bin_allocator.h:62:       if (!Bins[n].Used) {
  62:/home/ros/Downloads/opentx/radio/src/bin_allocator.h ****       if (!Bins[n].Used) {
 309              		.loc 2 62 7 view .LVU35
 310 0016 CD7E     		ldrb	r5, [r1, #27]	@ zero_extendqisi2	@ MEM[base: _27, offset: 27B], MEM[base: _27, offset: 27B]
 311 0018 3DB9     		cbnz	r5, .L15	@ MEM[base: _27, offset: 27B],
 312              	@ /home/ros/Downloads/opentx/radio/src/bin_allocator.h:63:         Bins[n].Used = true;
  63:/home/ros/Downloads/opentx/radio/src/bin_allocator.h ****         Bins[n].Used = true;
 313              		.loc 2 63 9 view .LVU36
 314 001a 1C21     		movs	r1, #28	@ tmp132,
 315 001c 01FB0040 		mla	r0, r1, r0, r4	@ tmp133, tmp132, n, ivtmp.68
 316              	.LVL15:
 317              		.loc 2 63 9 view .LVU37
 318 0020 0121     		movs	r1, #1	@ tmp135,
 319              	@ /home/ros/Downloads/opentx/radio/src/bin_allocator.h:64:         ++NoUsedBins;
  64:/home/ros/Downloads/opentx/radio/src/bin_allocator.h ****         ++NoUsedBins;
 320              		.loc 2 64 9 view .LVU38
 321 0022 0A44     		add	r2, r2, r1	@ tmp140,
 322              	@ /home/ros/Downloads/opentx/radio/src/bin_allocator.h:63:         Bins[n].Used = true;
  63:/home/ros/Downloads/opentx/radio/src/bin_allocator.h ****         Bins[n].Used = true;
 323              		.loc 2 63 9 view .LVU39
 324 0024 C176     		strb	r1, [r0, #27]	@ tmp135, slots1.Bins[n_46].Used
 325              	@ /home/ros/Downloads/opentx/radio/src/bin_allocator.h:64:         ++NoUsedBins;
 326              		.loc 2 64 9 view .LVU40
 327 0026 1A60     		str	r2, [r3]	@ tmp140, slots1.NoUsedBins
 328              	.LVL16:
 329              		.loc 2 64 9 view .LVU41
 330              	.LBE66:
 331              	.LBE68:
 332              	.LBE70:
  43:/home/ros/Downloads/opentx/radio/src/bin_allocator.cpp ****   return res ? res : slots2.malloc(size);
 333              		.loc 1 43 3 is_stmt 1 view .LVU42
 334              	.L12:
 335              	@ /home/ros/Downloads/opentx/radio/src/bin_allocator.cpp:44: }
  44:/home/ros/Downloads/opentx/radio/src/bin_allocator.cpp **** }
 336              		.loc 1 44 1 is_stmt 0 view .LVU43
 337 0028 30BD     		pop	{r4, r5, pc}	@
ARM GAS  /tmp/cc05DVyr.s 			page 9


 338              	.LVL17:
 339              	.L15:
 340              	.LBB71:
 341              	.LBB69:
 342              	.LBB67:
  61:/home/ros/Downloads/opentx/radio/src/bin_allocator.h ****       if (!Bins[n].Used) {
 343              		.loc 2 61 5 is_stmt 1 view .LVU44
 344 002a 0130     		adds	r0, r0, #1	@ n, n,
 345              	.LVL18:
  61:/home/ros/Downloads/opentx/radio/src/bin_allocator.h ****       if (!Bins[n].Used) {
 346              		.loc 2 61 26 view .LVU45
 347 002c C828     		cmp	r0, #200	@ n,
 348 002e 01F11C01 		add	r1, r1, #28	@ ivtmp.68, ivtmp.68,
 349 0032 F0D1     		bne	.L17		@,
 350              	.LVL19:
 351              	.L14:
  61:/home/ros/Downloads/opentx/radio/src/bin_allocator.h ****       if (!Bins[n].Used) {
 352              		.loc 2 61 26 is_stmt 0 view .LVU46
 353              	.LBE67:
 354              	.LBE69:
 355              	.LBE71:
 356              	.LBB72:
 357              	.LBB73:
 358              	.LBB74:
 359              	.LBB75:
 360              	@ /home/ros/Downloads/opentx/radio/src/bin_allocator.h:57:     if (NoUsedBins >= NUM_BINS) {
  57:/home/ros/Downloads/opentx/radio/src/bin_allocator.h ****       // TRACE("BinAllocator<%d> malloc [%lu] no free slots", SIZE_SLOT, size);
 361              		.loc 2 57 9 view .LVU47
 362 0034 41F2F812 		movw	r2, #4600	@ tmp146,
 363 0038 0F4B     		ldr	r3, .L27+4	@ tmp144,
 364 003a 9A58     		ldr	r2, [r3, r2]	@ _19, slots2.NoUsedBins
 365              	@ /home/ros/Downloads/opentx/radio/src/bin_allocator.h:57:     if (NoUsedBins >= NUM_BINS) {
  57:/home/ros/Downloads/opentx/radio/src/bin_allocator.h ****       // TRACE("BinAllocator<%d> malloc [%lu] no free slots", SIZE_SLOT, size);
 366              		.loc 2 57 5 view .LVU48
 367 003c 312A     		cmp	r2, #49	@ _19,
 368 003e 11DC     		bgt	.L21		@,
 369 0040 1946     		mov	r1, r3	@ ivtmp.60, ivtmp.60
 370              	.LBB76:
 371              	@ /home/ros/Downloads/opentx/radio/src/bin_allocator.h:61:     for (size_t n = 0; n < NUM_BINS; ++n
  61:/home/ros/Downloads/opentx/radio/src/bin_allocator.h ****       if (!Bins[n].Used) {
 372              		.loc 2 61 17 view .LVU49
 373 0042 0020     		movs	r0, #0	@ n,
 374              	.L19:
 375              	.LVL20:
 376              	@ /home/ros/Downloads/opentx/radio/src/bin_allocator.h:62:       if (!Bins[n].Used) {
  62:/home/ros/Downloads/opentx/radio/src/bin_allocator.h ****         Bins[n].Used = true;
 377              		.loc 2 62 7 view .LVU50
 378 0044 91F85B40 		ldrb	r4, [r1, #91]	@ zero_extendqisi2	@ MEM[base: _20, offset: 91B], MEM[base: _20, offset: 91B]
 379 0048 74B9     		cbnz	r4, .L18	@ MEM[base: _20, offset: 91B],
 380              	@ /home/ros/Downloads/opentx/radio/src/bin_allocator.h:63:         Bins[n].Used = true;
  63:/home/ros/Downloads/opentx/radio/src/bin_allocator.h ****         ++NoUsedBins;
 381              		.loc 2 63 9 view .LVU51
 382 004a 5C21     		movs	r1, #92	@ tmp151,
 383 004c 01FB0030 		mla	r0, r1, r0, r3	@ tmp152, tmp151, n, ivtmp.60
 384              	.LVL21:
  63:/home/ros/Downloads/opentx/radio/src/bin_allocator.h ****         ++NoUsedBins;
 385              		.loc 2 63 9 view .LVU52
ARM GAS  /tmp/cc05DVyr.s 			page 10


 386 0050 0121     		movs	r1, #1	@ tmp154,
 387              	@ /home/ros/Downloads/opentx/radio/src/bin_allocator.h:64:         ++NoUsedBins;
 388              		.loc 2 64 9 view .LVU53
 389 0052 0A44     		add	r2, r2, r1	@ tmp160,
 390              	@ /home/ros/Downloads/opentx/radio/src/bin_allocator.h:63:         Bins[n].Used = true;
  63:/home/ros/Downloads/opentx/radio/src/bin_allocator.h ****         ++NoUsedBins;
 391              		.loc 2 63 9 view .LVU54
 392 0054 80F85B10 		strb	r1, [r0, #91]	@ tmp154, slots2.Bins[n_47].Used
 393              	@ /home/ros/Downloads/opentx/radio/src/bin_allocator.h:64:         ++NoUsedBins;
 394              		.loc 2 64 9 view .LVU55
 395 0058 41F2F811 		movw	r1, #4600	@ tmp158,
 396 005c 5A50     		str	r2, [r3, r1]	@ tmp160, slots2.NoUsedBins
 397              	@ /home/ros/Downloads/opentx/radio/src/bin_allocator.h:66:         return Bins[n].data;
  65:/home/ros/Downloads/opentx/radio/src/bin_allocator.h ****         // TRACE("\tBinAllocator<%d> malloc %lu[%lu]", SIZE_SLOT, n, size);
  66:/home/ros/Downloads/opentx/radio/src/bin_allocator.h ****         return Bins[n].data;
 398              		.loc 2 66 24 view .LVU56
 399 005e E3E7     		b	.L12		@
 400              	.LVL22:
 401              	.L13:
 402              		.loc 2 66 24 view .LVU57
 403              	.LBE76:
 404              	.LBE75:
 405              	.LBE74:
 406              	.LBE73:
 407              	.LBE72:
  43:/home/ros/Downloads/opentx/radio/src/bin_allocator.cpp **** }
 408              		.loc 1 43 3 is_stmt 1 view .LVU58
 409              	.LBB84:
 410              	.LBI72:
  40:/home/ros/Downloads/opentx/radio/src/bin_allocator.cpp ****   //try to allocate from our space
 411              		.loc 1 40 8 view .LVU59
 412              	.LBB82:
 413              	.LBB80:
 414              	.LBI74:
  52:/home/ros/Downloads/opentx/radio/src/bin_allocator.h ****     if (size > SIZE_SLOT) {
 415              		.loc 2 52 10 view .LVU60
 416              	.LBB78:
 417              	@ /home/ros/Downloads/opentx/radio/src/bin_allocator.h:53:     if (size > SIZE_SLOT) {
  53:/home/ros/Downloads/opentx/radio/src/bin_allocator.h ****       // TRACE("BinAllocator<%d> malloc [%lu] size > SIZE_SLOT", SIZE_SLOT, size);
 418              		.loc 2 53 5 is_stmt 0 view .LVU61
 419 0060 5B28     		cmp	r0, #91	@ size,
 420 0062 E7D9     		bls	.L14		@,
 421              	.LVL23:
 422              	.L21:
 423              	@ /home/ros/Downloads/opentx/radio/src/bin_allocator.h:55:       return 0;
  55:/home/ros/Downloads/opentx/radio/src/bin_allocator.h ****     }
 424              		.loc 2 55 14 view .LVU62
 425 0064 0020     		movs	r0, #0	@ <retval>,
 426              	.LVL24:
  55:/home/ros/Downloads/opentx/radio/src/bin_allocator.h ****     }
 427              		.loc 2 55 14 view .LVU63
 428              	.LBE78:
 429              	.LBE80:
 430              	.LBE82:
 431              	.LBE84:
 432              	@ /home/ros/Downloads/opentx/radio/src/bin_allocator.cpp:43:   return res ? res : slots2.malloc(siz
  43:/home/ros/Downloads/opentx/radio/src/bin_allocator.cpp **** }
ARM GAS  /tmp/cc05DVyr.s 			page 11


 433              		.loc 1 43 40 view .LVU64
 434 0066 DFE7     		b	.L12		@
 435              	.LVL25:
 436              	.L18:
 437              	.LBB85:
 438              	.LBB83:
 439              	.LBB81:
 440              	.LBB79:
 441              	.LBB77:
  61:/home/ros/Downloads/opentx/radio/src/bin_allocator.h ****       if (!Bins[n].Used) {
 442              		.loc 2 61 5 is_stmt 1 view .LVU65
 443 0068 0130     		adds	r0, r0, #1	@ n, n,
 444              	.LVL26:
  61:/home/ros/Downloads/opentx/radio/src/bin_allocator.h ****       if (!Bins[n].Used) {
 445              		.loc 2 61 26 view .LVU66
 446 006a 3228     		cmp	r0, #50	@ n,
 447 006c 01F15C01 		add	r1, r1, #92	@ ivtmp.60, ivtmp.60,
 448 0070 E8D1     		bne	.L19		@,
 449 0072 F7E7     		b	.L21		@
 450              	.L28:
 451              		.align	2
 452              	.L27:
 453 0074 E0150000 		.word	slots1+5600
 454 0078 00000000 		.word	slots2
 455              	.LBE77:
 456              	.LBE79:
 457              	.LBE81:
 458              	.LBE83:
 459              	.LBE85:
 460              		.cfi_endproc
 461              	.LFE710:
 462              		.size	_Z10bin_mallocj, .-_Z10bin_mallocj
 463              		.section	.rodata._Z11bin_reallocPvj.str1.1,"aMS",%progbits,1
 464              	.LC0:
 465 0000 6C696263 		.ascii	"libc malloc [%lu] FAILURE\015\012\000"
 465      206D616C 
 465      6C6F6320 
 465      5B256C75 
 465      5D204641 
 466              		.section	.text._Z11bin_reallocPvj,"ax",%progbits
 467              		.align	1
 468              		.global	_Z11bin_reallocPvj
 469              		.syntax unified
 470              		.thumb
 471              		.thumb_func
 472              		.fpu softvfp
 473              		.type	_Z11bin_reallocPvj, %function
 474              	_Z11bin_reallocPvj:
 475              	.LVL27:
 476              	.LFB711:
  45:/home/ros/Downloads/opentx/radio/src/bin_allocator.cpp **** 
  46:/home/ros/Downloads/opentx/radio/src/bin_allocator.cpp **** void * bin_realloc(void * ptr, size_t size)
  47:/home/ros/Downloads/opentx/radio/src/bin_allocator.cpp **** {
 477              		.loc 1 47 1 view -0
 478              		.cfi_startproc
 479              		@ args = 0, pretend = 0, frame = 0
 480              		@ frame_needed = 0, uses_anonymous_args = 0
ARM GAS  /tmp/cc05DVyr.s 			page 12


  48:/home/ros/Downloads/opentx/radio/src/bin_allocator.cpp ****   if (ptr == 0) {
 481              		.loc 1 48 3 view .LVU68
 482              	@ /home/ros/Downloads/opentx/radio/src/bin_allocator.cpp:47: {
  47:/home/ros/Downloads/opentx/radio/src/bin_allocator.cpp ****   if (ptr == 0) {
 483              		.loc 1 47 1 is_stmt 0 view .LVU69
 484 0000 F8B5     		push	{r3, r4, r5, r6, r7, lr}	@
 485              	.LCFI1:
 486              		.cfi_def_cfa_offset 24
 487              		.cfi_offset 3, -24
 488              		.cfi_offset 4, -20
 489              		.cfi_offset 5, -16
 490              		.cfi_offset 6, -12
 491              		.cfi_offset 7, -8
 492              		.cfi_offset 14, -4
 493              	@ /home/ros/Downloads/opentx/radio/src/bin_allocator.cpp:47: {
  47:/home/ros/Downloads/opentx/radio/src/bin_allocator.cpp ****   if (ptr == 0) {
 494              		.loc 1 47 1 view .LVU70
 495 0002 0E46     		mov	r6, r1	@ size, tmp140
 496              	.LBB116:
 497              	@ /home/ros/Downloads/opentx/radio/src/bin_allocator.cpp:48:   if (ptr == 0) {
 498              		.loc 1 48 3 view .LVU71
 499 0004 0446     		mov	r4, r0	@ ptr, tmp139
 500 0006 20B9     		cbnz	r0, .L30	@ ptr,
  49:/home/ros/Downloads/opentx/radio/src/bin_allocator.cpp ****     //no previous data, try our malloc
  50:/home/ros/Downloads/opentx/radio/src/bin_allocator.cpp ****     return bin_malloc(size);
 501              		.loc 1 50 5 is_stmt 1 view .LVU72
 502              	.LBE116:
 503              	@ /home/ros/Downloads/opentx/radio/src/bin_allocator.cpp:86: }
  51:/home/ros/Downloads/opentx/radio/src/bin_allocator.cpp ****   }
  52:/home/ros/Downloads/opentx/radio/src/bin_allocator.cpp ****   else {
  53:/home/ros/Downloads/opentx/radio/src/bin_allocator.cpp ****     if (! (slots1.is_member(ptr) || slots2.is_member(ptr)) ) {
  54:/home/ros/Downloads/opentx/radio/src/bin_allocator.cpp ****       // not our data, leave it to libc realloc
  55:/home/ros/Downloads/opentx/radio/src/bin_allocator.cpp ****       return 0;
  56:/home/ros/Downloads/opentx/radio/src/bin_allocator.cpp ****     }
  57:/home/ros/Downloads/opentx/radio/src/bin_allocator.cpp **** 
  58:/home/ros/Downloads/opentx/radio/src/bin_allocator.cpp ****     //we have existing data
  59:/home/ros/Downloads/opentx/radio/src/bin_allocator.cpp ****     // if it fits in current slot, return it
  60:/home/ros/Downloads/opentx/radio/src/bin_allocator.cpp ****     // TODO if new size is smaller, try to relocate in smaller slot
  61:/home/ros/Downloads/opentx/radio/src/bin_allocator.cpp ****     if ( slots1.can_fit(ptr, size) ) {
  62:/home/ros/Downloads/opentx/radio/src/bin_allocator.cpp ****       // TRACE("OUR realloc %p[%lu] fits in slot1", ptr, size);
  63:/home/ros/Downloads/opentx/radio/src/bin_allocator.cpp ****       return ptr;
  64:/home/ros/Downloads/opentx/radio/src/bin_allocator.cpp ****     }
  65:/home/ros/Downloads/opentx/radio/src/bin_allocator.cpp ****     if ( slots2.can_fit(ptr, size) ) {
  66:/home/ros/Downloads/opentx/radio/src/bin_allocator.cpp ****       // TRACE("OUR realloc %p[%lu] fits in slot2", ptr, size);
  67:/home/ros/Downloads/opentx/radio/src/bin_allocator.cpp ****       return ptr;
  68:/home/ros/Downloads/opentx/radio/src/bin_allocator.cpp ****     }
  69:/home/ros/Downloads/opentx/radio/src/bin_allocator.cpp **** 
  70:/home/ros/Downloads/opentx/radio/src/bin_allocator.cpp ****     //we need a bigger slot
  71:/home/ros/Downloads/opentx/radio/src/bin_allocator.cpp ****     void * res = bin_malloc(size);
  72:/home/ros/Downloads/opentx/radio/src/bin_allocator.cpp ****     if (res == 0) {
  73:/home/ros/Downloads/opentx/radio/src/bin_allocator.cpp ****       // we don't have the space, use libc malloc
  74:/home/ros/Downloads/opentx/radio/src/bin_allocator.cpp ****       // TRACE("bin_malloc [%lu] FAILURE", size);
  75:/home/ros/Downloads/opentx/radio/src/bin_allocator.cpp ****       res = malloc(size);
  76:/home/ros/Downloads/opentx/radio/src/bin_allocator.cpp ****       if (res == 0) {
  77:/home/ros/Downloads/opentx/radio/src/bin_allocator.cpp ****         TRACE("libc malloc [%lu] FAILURE", size);  
  78:/home/ros/Downloads/opentx/radio/src/bin_allocator.cpp ****         return 0;
  79:/home/ros/Downloads/opentx/radio/src/bin_allocator.cpp ****       }
ARM GAS  /tmp/cc05DVyr.s 			page 13


  80:/home/ros/Downloads/opentx/radio/src/bin_allocator.cpp ****     }
  81:/home/ros/Downloads/opentx/radio/src/bin_allocator.cpp ****     //copy data
  82:/home/ros/Downloads/opentx/radio/src/bin_allocator.cpp ****     memcpy(res, ptr, slots1.size(ptr) + slots2.size(ptr));
  83:/home/ros/Downloads/opentx/radio/src/bin_allocator.cpp ****     bin_free(ptr);
  84:/home/ros/Downloads/opentx/radio/src/bin_allocator.cpp ****     return res;
  85:/home/ros/Downloads/opentx/radio/src/bin_allocator.cpp ****   }
  86:/home/ros/Downloads/opentx/radio/src/bin_allocator.cpp **** }
 504              		.loc 1 86 1 is_stmt 0 view .LVU73
 505 0008 BDE8F840 		pop	{r3, r4, r5, r6, r7, lr}	@
 506              	.LCFI2:
 507              		.cfi_remember_state
 508              		.cfi_restore 14
 509              		.cfi_restore 7
 510              		.cfi_restore 6
 511              		.cfi_restore 5
 512              		.cfi_restore 4
 513              		.cfi_restore 3
 514              		.cfi_def_cfa_offset 0
 515              	.LBB133:
 516              	@ /home/ros/Downloads/opentx/radio/src/bin_allocator.cpp:50:     return bin_malloc(size);
  50:/home/ros/Downloads/opentx/radio/src/bin_allocator.cpp ****   }
 517              		.loc 1 50 22 view .LVU74
 518 000c 0846     		mov	r0, r1	@, size
 519              	.LVL28:
  50:/home/ros/Downloads/opentx/radio/src/bin_allocator.cpp ****   }
 520              		.loc 1 50 22 view .LVU75
 521 000e FFF7FEBF 		b	_Z10bin_mallocj		@
 522              	.LVL29:
 523              	.L30:
 524              	.LCFI3:
 525              		.cfi_restore_state
 526              	.LBB117:
  53:/home/ros/Downloads/opentx/radio/src/bin_allocator.cpp ****       // not our data, leave it to libc realloc
 527              		.loc 1 53 5 is_stmt 1 view .LVU76
 528              	.LBB118:
 529              	.LBI118:
  49:/home/ros/Downloads/opentx/radio/src/bin_allocator.h ****     return (ptr >= Bins[0].data && ptr <= Bins[NUM_BINS-1].data);
 530              		.loc 2 49 8 view .LVU77
 531              	.LBB119:
 532              	@ /home/ros/Downloads/opentx/radio/src/bin_allocator.h:50:     return (ptr >= Bins[0].data && ptr <
  50:/home/ros/Downloads/opentx/radio/src/bin_allocator.h ****   }
 533              		.loc 2 50 33 is_stmt 0 view .LVU78
 534 0012 264F     		ldr	r7, .L49	@ tmp117,
 535 0014 B842     		cmp	r0, r7	@ ptr, tmp117
 536 0016 02D3     		bcc	.L31		@,
 537 0018 254B     		ldr	r3, .L49+4	@ tmp118,
 538 001a 9842     		cmp	r0, r3	@ ptr, tmp118
 539 001c 07D9     		bls	.L32		@,
 540              	.L31:
 541              	.LVL30:
  50:/home/ros/Downloads/opentx/radio/src/bin_allocator.h ****   }
 542              		.loc 2 50 33 view .LVU79
 543              	.LBE119:
 544              	.LBE118:
 545              	.LBB120:
 546              	.LBI120:
  49:/home/ros/Downloads/opentx/radio/src/bin_allocator.h ****     return (ptr >= Bins[0].data && ptr <= Bins[NUM_BINS-1].data);
ARM GAS  /tmp/cc05DVyr.s 			page 14


 547              		.loc 2 49 8 is_stmt 1 view .LVU80
 548              	.LBB121:
 549              	@ /home/ros/Downloads/opentx/radio/src/bin_allocator.h:50:     return (ptr >= Bins[0].data && ptr <
  50:/home/ros/Downloads/opentx/radio/src/bin_allocator.h ****   }
 550              		.loc 2 50 33 is_stmt 0 view .LVU81
 551 001e 254B     		ldr	r3, .L49+8	@ tmp119,
 552 0020 9C42     		cmp	r4, r3	@ ptr, tmp119
 553 0022 02D3     		bcc	.L42		@,
 554 0024 244B     		ldr	r3, .L49+12	@ tmp120,
 555 0026 9C42     		cmp	r4, r3	@ ptr, tmp120
 556 0028 38D9     		bls	.L34		@,
 557              	.LVL31:
 558              	.L42:
  50:/home/ros/Downloads/opentx/radio/src/bin_allocator.h ****   }
 559              		.loc 2 50 33 view .LVU82
 560              	.LBE121:
 561              	.LBE120:
 562              	@ /home/ros/Downloads/opentx/radio/src/bin_allocator.cpp:55:       return 0;
  55:/home/ros/Downloads/opentx/radio/src/bin_allocator.cpp ****     }
 563              		.loc 1 55 14 view .LVU83
 564 002a 0024     		movs	r4, #0	@ ptr,
 565              	.LVL32:
  55:/home/ros/Downloads/opentx/radio/src/bin_allocator.cpp ****     }
 566              		.loc 1 55 14 view .LVU84
 567 002c 30E0     		b	.L47		@
 568              	.LVL33:
 569              	.L32:
 570              	.LBB122:
 571              	.LBB123:
 572              	@ /home/ros/Downloads/opentx/radio/src/bin_allocator.h:76:     return is_member(ptr) && size <= SIZ
  67:/home/ros/Downloads/opentx/radio/src/bin_allocator.h ****       }
  68:/home/ros/Downloads/opentx/radio/src/bin_allocator.h ****     }
  69:/home/ros/Downloads/opentx/radio/src/bin_allocator.h ****     // TRACE("BinAllocator<%d> malloc [%lu] no free slots", SIZE_SLOT , size);
  70:/home/ros/Downloads/opentx/radio/src/bin_allocator.h ****     return 0;
  71:/home/ros/Downloads/opentx/radio/src/bin_allocator.h ****   }
  72:/home/ros/Downloads/opentx/radio/src/bin_allocator.h ****   size_t size(void * ptr) {
  73:/home/ros/Downloads/opentx/radio/src/bin_allocator.h ****     return is_member(ptr) ? SIZE_SLOT : 0;
  74:/home/ros/Downloads/opentx/radio/src/bin_allocator.h ****   }
  75:/home/ros/Downloads/opentx/radio/src/bin_allocator.h ****   bool can_fit(void * ptr, size_t size) {
  76:/home/ros/Downloads/opentx/radio/src/bin_allocator.h ****     return is_member(ptr) && size <= SIZE_SLOT;  //todo is_member check is redundant
 573              		.loc 2 76 27 view .LVU85
 574 002e 1B29     		cmp	r1, #27	@ size,
 575 0030 2ED9     		bls	.L47		@,
 576              	.LVL34:
 577              		.loc 2 76 27 view .LVU86
 578              	.LBE123:
 579              	.LBE122:
  65:/home/ros/Downloads/opentx/radio/src/bin_allocator.cpp ****       // TRACE("OUR realloc %p[%lu] fits in slot2", ptr, size);
 580              		.loc 1 65 5 is_stmt 1 view .LVU87
 581              	.LBB127:
 582              	.LBI127:
  75:/home/ros/Downloads/opentx/radio/src/bin_allocator.h ****     return is_member(ptr) && size <= SIZE_SLOT;  //todo is_member check is redundant
 583              		.loc 2 75 8 view .LVU88
 584              	.LBB128:
 585              	.LBB129:
 586              	.LBI129:
  49:/home/ros/Downloads/opentx/radio/src/bin_allocator.h ****     return (ptr >= Bins[0].data && ptr <= Bins[NUM_BINS-1].data);
ARM GAS  /tmp/cc05DVyr.s 			page 15


 587              		.loc 2 49 8 view .LVU89
 588              	.LBB130:
 589              	@ /home/ros/Downloads/opentx/radio/src/bin_allocator.h:50:     return (ptr >= Bins[0].data && ptr <
  50:/home/ros/Downloads/opentx/radio/src/bin_allocator.h ****   }
 590              		.loc 2 50 33 is_stmt 0 view .LVU90
 591 0032 204B     		ldr	r3, .L49+8	@ tmp122,
 592 0034 9842     		cmp	r0, r3	@ ptr, tmp122
 593 0036 04D3     		bcc	.L37		@,
 594 0038 1F4B     		ldr	r3, .L49+12	@ tmp123,
 595 003a 9842     		cmp	r0, r3	@ ptr, tmp123
 596 003c 01D8     		bhi	.L37		@,
 597              	.LVL35:
 598              	.L36:
  50:/home/ros/Downloads/opentx/radio/src/bin_allocator.h ****   }
 599              		.loc 2 50 33 view .LVU91
 600              	.LBE130:
 601              	.LBE129:
 602              	@ /home/ros/Downloads/opentx/radio/src/bin_allocator.h:76:     return is_member(ptr) && size <= SIZ
 603              		.loc 2 76 27 view .LVU92
 604 003e 5B2E     		cmp	r6, #91	@ size,
 605 0040 26D9     		bls	.L47		@,
 606              	.L37:
 607              	.LVL36:
 608              		.loc 2 76 27 view .LVU93
 609              	.LBE128:
 610              	.LBE127:
 611              	.LBE117:
 612              	.LBE133:
 613              	.LBB134:
 614              	.LBI134:
  46:/home/ros/Downloads/opentx/radio/src/bin_allocator.cpp **** {
 615              		.loc 1 46 8 is_stmt 1 view .LVU94
 616              	.LBB135:
  71:/home/ros/Downloads/opentx/radio/src/bin_allocator.cpp ****     if (res == 0) {
 617              		.loc 1 71 5 view .LVU95
 618              	@ /home/ros/Downloads/opentx/radio/src/bin_allocator.cpp:71:     void * res = bin_malloc(size);
  71:/home/ros/Downloads/opentx/radio/src/bin_allocator.cpp ****     if (res == 0) {
 619              		.loc 1 71 28 is_stmt 0 view .LVU96
 620 0042 3046     		mov	r0, r6	@, size
 621              	.LVL37:
  71:/home/ros/Downloads/opentx/radio/src/bin_allocator.cpp ****     if (res == 0) {
 622              		.loc 1 71 28 view .LVU97
 623 0044 FFF7FEFF 		bl	_Z10bin_mallocj		@
 624              	.LVL38:
  72:/home/ros/Downloads/opentx/radio/src/bin_allocator.cpp ****       // we don't have the space, use libc malloc
 625              		.loc 1 72 5 is_stmt 1 view .LVU98
 626 0048 0546     		mov	r5, r0	@ res, tmp141
 627 004a 48B9     		cbnz	r0, .L38	@ res,
  75:/home/ros/Downloads/opentx/radio/src/bin_allocator.cpp ****       if (res == 0) {
 628              		.loc 1 75 7 view .LVU99
 629              	@ /home/ros/Downloads/opentx/radio/src/bin_allocator.cpp:75:       res = malloc(size);
  75:/home/ros/Downloads/opentx/radio/src/bin_allocator.cpp ****       if (res == 0) {
 630              		.loc 1 75 19 is_stmt 0 view .LVU100
 631 004c 3046     		mov	r0, r6	@, size
 632              	.LVL39:
  75:/home/ros/Downloads/opentx/radio/src/bin_allocator.cpp ****       if (res == 0) {
 633              		.loc 1 75 19 view .LVU101
ARM GAS  /tmp/cc05DVyr.s 			page 16


 634 004e FFF7FEFF 		bl	malloc		@
 635              	.LVL40:
  76:/home/ros/Downloads/opentx/radio/src/bin_allocator.cpp ****         TRACE("libc malloc [%lu] FAILURE", size);  
 636              		.loc 1 76 7 is_stmt 1 view .LVU102
 637 0052 0546     		mov	r5, r0	@ res, tmp142
 638 0054 20B9     		cbnz	r0, .L38	@ res,
  77:/home/ros/Downloads/opentx/radio/src/bin_allocator.cpp ****         return 0;
 639              		.loc 1 77 9 view .LVU103
  77:/home/ros/Downloads/opentx/radio/src/bin_allocator.cpp ****         return 0;
 640              		.loc 1 77 9 view .LVU104
 641 0056 3146     		mov	r1, r6	@, size
 642 0058 1848     		ldr	r0, .L49+16	@,
 643              	.LVL41:
  77:/home/ros/Downloads/opentx/radio/src/bin_allocator.cpp ****         return 0;
 644              		.loc 1 77 9 is_stmt 0 view .LVU105
 645 005a FFF7FEFF 		bl	serialPrintf		@
 646              	.LVL42:
  78:/home/ros/Downloads/opentx/radio/src/bin_allocator.cpp ****       }
 647              		.loc 1 78 9 is_stmt 1 view .LVU106
 648 005e E4E7     		b	.L42		@
 649              	.LVL43:
 650              	.L38:
  82:/home/ros/Downloads/opentx/radio/src/bin_allocator.cpp ****     bin_free(ptr);
 651              		.loc 1 82 5 view .LVU107
 652              	.LBB136:
 653              	.LBI136:
  72:/home/ros/Downloads/opentx/radio/src/bin_allocator.h ****     return is_member(ptr) ? SIZE_SLOT : 0;
 654              		.loc 2 72 10 view .LVU108
 655              	.LBB137:
 656              	.LBB138:
 657              	.LBI138:
  49:/home/ros/Downloads/opentx/radio/src/bin_allocator.h ****     return (ptr >= Bins[0].data && ptr <= Bins[NUM_BINS-1].data);
 658              		.loc 2 49 8 view .LVU109
 659              	.LBB139:
 660              	@ /home/ros/Downloads/opentx/radio/src/bin_allocator.h:50:     return (ptr >= Bins[0].data && ptr <
  50:/home/ros/Downloads/opentx/radio/src/bin_allocator.h ****   }
 661              		.loc 2 50 33 is_stmt 0 view .LVU110
 662 0060 BC42     		cmp	r4, r7	@ ptr, tmp138
 663 0062 17D3     		bcc	.L43		@,
  50:/home/ros/Downloads/opentx/radio/src/bin_allocator.h ****   }
 664              		.loc 2 50 33 view .LVU111
 665              	.LBE139:
 666              	.LBE138:
 667              	@ /home/ros/Downloads/opentx/radio/src/bin_allocator.h:73:     return is_member(ptr) ? SIZE_SLOT : 
  73:/home/ros/Downloads/opentx/radio/src/bin_allocator.h ****   }
 668              		.loc 2 73 27 view .LVU112
 669 0064 124B     		ldr	r3, .L49+4	@ tmp127,
 670 0066 9C42     		cmp	r4, r3	@ ptr, tmp127
 671 0068 94BF     		ite	ls		@
 672 006a 1B23     		movls	r3, #27	@, iftmp.10_21,
 673 006c 0023     		movhi	r3, #0	@, iftmp.10_21,
 674              	.L39:
 675              	.LVL44:
  73:/home/ros/Downloads/opentx/radio/src/bin_allocator.h ****   }
 676              		.loc 2 73 27 view .LVU113
 677              	.LBE137:
 678              	.LBE136:
ARM GAS  /tmp/cc05DVyr.s 			page 17


 679              	.LBB141:
 680              	.LBI141:
  72:/home/ros/Downloads/opentx/radio/src/bin_allocator.h ****     return is_member(ptr) ? SIZE_SLOT : 0;
 681              		.loc 2 72 10 is_stmt 1 view .LVU114
 682              	.LBB142:
 683              	.LBB143:
 684              	.LBI143:
  49:/home/ros/Downloads/opentx/radio/src/bin_allocator.h ****     return (ptr >= Bins[0].data && ptr <= Bins[NUM_BINS-1].data);
 685              		.loc 2 49 8 view .LVU115
 686              	.LBB144:
 687              	@ /home/ros/Downloads/opentx/radio/src/bin_allocator.h:50:     return (ptr >= Bins[0].data && ptr <
  50:/home/ros/Downloads/opentx/radio/src/bin_allocator.h ****   }
 688              		.loc 2 50 33 is_stmt 0 view .LVU116
 689 006e 114A     		ldr	r2, .L49+8	@ tmp128,
 690 0070 9442     		cmp	r4, r2	@ ptr, tmp128
 691 0072 11D3     		bcc	.L45		@,
 692              	.LBE144:
 693              	.LBE143:
 694              	@ /home/ros/Downloads/opentx/radio/src/bin_allocator.h:73:     return is_member(ptr) ? SIZE_SLOT : 
  73:/home/ros/Downloads/opentx/radio/src/bin_allocator.h ****   }
 695              		.loc 2 73 27 view .LVU117
 696 0074 104A     		ldr	r2, .L49+12	@ tmp129,
 697 0076 9442     		cmp	r4, r2	@ ptr, tmp129
 698 0078 94BF     		ite	ls		@
 699 007a 5B22     		movls	r2, #91	@, iftmp.11_20,
 700 007c 0022     		movhi	r2, #0	@, iftmp.11_20,
 701              	.L40:
 702              	.LVL45:
  73:/home/ros/Downloads/opentx/radio/src/bin_allocator.h ****   }
 703              		.loc 2 73 27 view .LVU118
 704              	.LBE142:
 705              	.LBE141:
 706              	@ /home/ros/Downloads/opentx/radio/src/bin_allocator.cpp:82:     memcpy(res, ptr, slots1.size(ptr) 
  82:/home/ros/Downloads/opentx/radio/src/bin_allocator.cpp ****     bin_free(ptr);
 707              		.loc 1 82 11 view .LVU119
 708 007e 2146     		mov	r1, r4	@, ptr
 709 0080 1A44     		add	r2, r2, r3	@, iftmp.10_21
 710 0082 2846     		mov	r0, r5	@, res
 711              	.LVL46:
  82:/home/ros/Downloads/opentx/radio/src/bin_allocator.cpp ****     bin_free(ptr);
 712              		.loc 1 82 11 view .LVU120
 713 0084 FFF7FEFF 		bl	memcpy		@
 714              	.LVL47:
  83:/home/ros/Downloads/opentx/radio/src/bin_allocator.cpp ****     return res;
 715              		.loc 1 83 5 is_stmt 1 view .LVU121
 716              	@ /home/ros/Downloads/opentx/radio/src/bin_allocator.cpp:83:     bin_free(ptr);
  83:/home/ros/Downloads/opentx/radio/src/bin_allocator.cpp ****     return res;
 717              		.loc 1 83 13 is_stmt 0 view .LVU122
 718 0088 2046     		mov	r0, r4	@, ptr
 719 008a FFF7FEFF 		bl	_Z8bin_freePv		@
 720              	.LVL48:
  84:/home/ros/Downloads/opentx/radio/src/bin_allocator.cpp ****   }
 721              		.loc 1 84 5 is_stmt 1 view .LVU123
 722              	@ /home/ros/Downloads/opentx/radio/src/bin_allocator.cpp:84:     return res;
  84:/home/ros/Downloads/opentx/radio/src/bin_allocator.cpp ****   }
 723              		.loc 1 84 12 is_stmt 0 view .LVU124
 724 008e 2C46     		mov	r4, r5	@ ptr, res
ARM GAS  /tmp/cc05DVyr.s 			page 18


 725              	.LVL49:
 726              	.L47:
  84:/home/ros/Downloads/opentx/radio/src/bin_allocator.cpp ****   }
 727              		.loc 1 84 12 view .LVU125
 728              	.LBE135:
 729              	.LBE134:
 730              	@ /home/ros/Downloads/opentx/radio/src/bin_allocator.cpp:86: }
 731              		.loc 1 86 1 view .LVU126
 732 0090 2046     		mov	r0, r4	@, ptr
 733 0092 F8BD     		pop	{r3, r4, r5, r6, r7, pc}	@
 734              	.LVL50:
 735              	.L43:
 736              	.LBB149:
 737              	.LBB148:
 738              	.LBB146:
 739              	.LBB140:
 740              	@ /home/ros/Downloads/opentx/radio/src/bin_allocator.h:73:     return is_member(ptr) ? SIZE_SLOT : 
  73:/home/ros/Downloads/opentx/radio/src/bin_allocator.h ****   }
 741              		.loc 2 73 27 view .LVU127
 742 0094 0023     		movs	r3, #0	@ iftmp.10_21,
 743 0096 EAE7     		b	.L39		@
 744              	.LVL51:
 745              	.L45:
  73:/home/ros/Downloads/opentx/radio/src/bin_allocator.h ****   }
 746              		.loc 2 73 27 view .LVU128
 747              	.LBE140:
 748              	.LBE146:
 749              	.LBB147:
 750              	.LBB145:
 751 0098 0022     		movs	r2, #0	@ iftmp.11_20,
 752 009a F0E7     		b	.L40		@
 753              	.LVL52:
 754              	.L34:
  73:/home/ros/Downloads/opentx/radio/src/bin_allocator.h ****   }
 755              		.loc 2 73 27 view .LVU129
 756              	.LBE145:
 757              	.LBE147:
 758              	.LBE148:
 759              	.LBE149:
 760              	.LBB150:
 761              	.LBB132:
  61:/home/ros/Downloads/opentx/radio/src/bin_allocator.cpp ****       // TRACE("OUR realloc %p[%lu] fits in slot1", ptr, size);
 762              		.loc 1 61 5 is_stmt 1 view .LVU130
 763              	.LBB131:
 764              	.LBI122:
  75:/home/ros/Downloads/opentx/radio/src/bin_allocator.h ****     return is_member(ptr) && size <= SIZE_SLOT;  //todo is_member check is redundant
 765              		.loc 2 75 8 view .LVU131
 766              	.LBB126:
 767              	.LBB124:
 768              	.LBI124:
  49:/home/ros/Downloads/opentx/radio/src/bin_allocator.h ****     return (ptr >= Bins[0].data && ptr <= Bins[NUM_BINS-1].data);
 769              		.loc 2 49 8 view .LVU132
 770              	.LBB125:
 771              	@ /home/ros/Downloads/opentx/radio/src/bin_allocator.h:50:     return (ptr >= Bins[0].data && ptr <
  50:/home/ros/Downloads/opentx/radio/src/bin_allocator.h ****   }
 772              		.loc 2 50 33 is_stmt 0 view .LVU133
 773 009c BC42     		cmp	r4, r7	@ ptr, tmp138
ARM GAS  /tmp/cc05DVyr.s 			page 19


 774 009e CED3     		bcc	.L36		@,
 775 00a0 034B     		ldr	r3, .L49+4	@ tmp121,
 776 00a2 9C42     		cmp	r4, r3	@ ptr, tmp121
 777 00a4 CBD8     		bhi	.L36		@,
 778              	.LVL53:
  50:/home/ros/Downloads/opentx/radio/src/bin_allocator.h ****   }
 779              		.loc 2 50 33 view .LVU134
 780              	.LBE125:
 781              	.LBE124:
 782              	@ /home/ros/Downloads/opentx/radio/src/bin_allocator.h:76:     return is_member(ptr) && size <= SIZ
 783              		.loc 2 76 27 view .LVU135
 784 00a6 1B2E     		cmp	r6, #27	@ size,
 785 00a8 C9D8     		bhi	.L36		@,
 786 00aa F1E7     		b	.L47		@
 787              	.L50:
 788              		.align	2
 789              	.L49:
 790 00ac 00000000 		.word	slots1
 791 00b0 C4150000 		.word	slots1+5572
 792 00b4 00000000 		.word	slots2
 793 00b8 9C110000 		.word	slots2+4508
 794 00bc 00000000 		.word	.LC0
 795              	.LBE126:
 796              	.LBE131:
 797              	.LBE132:
 798              	.LBE150:
 799              		.cfi_endproc
 800              	.LFE711:
 801              		.size	_Z11bin_reallocPvj, .-_Z11bin_reallocPvj
 802              		.section	.rodata._Z11bin_l_allocPvS_jj.str1.1,"aMS",%progbits,1
 803              	.LC1:
 804 0000 62696E5F 		.ascii	"bin_l_alloc(): simulating malloc failure at %p[%lu]"
 804      6C5F616C 
 804      6C6F6328 
 804      293A2073 
 804      696D756C 
 805 0033 0D0A00   		.ascii	"\015\012\000"
 806              		.section	.text._Z11bin_l_allocPvS_jj,"ax",%progbits
 807              		.align	1
 808              		.global	_Z11bin_l_allocPvS_jj
 809              		.syntax unified
 810              		.thumb
 811              		.thumb_func
 812              		.fpu softvfp
 813              		.type	_Z11bin_l_allocPvS_jj, %function
 814              	_Z11bin_l_allocPvS_jj:
 815              	.LVL54:
 816              	.LFB712:
  87:/home/ros/Downloads/opentx/radio/src/bin_allocator.cpp **** 
  88:/home/ros/Downloads/opentx/radio/src/bin_allocator.cpp **** 
  89:/home/ros/Downloads/opentx/radio/src/bin_allocator.cpp **** void *bin_l_alloc (void *ud, void *ptr, size_t osize, size_t nsize)
  90:/home/ros/Downloads/opentx/radio/src/bin_allocator.cpp **** {
 817              		.loc 1 90 1 is_stmt 1 view -0
 818              		.cfi_startproc
 819              		@ args = 0, pretend = 0, frame = 0
 820              		@ frame_needed = 0, uses_anonymous_args = 0
  91:/home/ros/Downloads/opentx/radio/src/bin_allocator.cpp ****   (void)ud; (void)osize;  /* not used */
ARM GAS  /tmp/cc05DVyr.s 			page 20


 821              		.loc 1 91 3 view .LVU137
 822              		.loc 1 91 13 view .LVU138
  92:/home/ros/Downloads/opentx/radio/src/bin_allocator.cpp ****   if (nsize == 0) {
 823              		.loc 1 92 3 view .LVU139
 824              	@ /home/ros/Downloads/opentx/radio/src/bin_allocator.cpp:90: {
  90:/home/ros/Downloads/opentx/radio/src/bin_allocator.cpp ****   (void)ud; (void)osize;  /* not used */
 825              		.loc 1 90 1 is_stmt 0 view .LVU140
 826 0000 38B5     		push	{r3, r4, r5, lr}	@
 827              	.LCFI4:
 828              		.cfi_def_cfa_offset 16
 829              		.cfi_offset 3, -16
 830              		.cfi_offset 4, -12
 831              		.cfi_offset 5, -8
 832              		.cfi_offset 14, -4
 833              	@ /home/ros/Downloads/opentx/radio/src/bin_allocator.cpp:90: {
  90:/home/ros/Downloads/opentx/radio/src/bin_allocator.cpp ****   (void)ud; (void)osize;  /* not used */
 834              		.loc 1 90 1 view .LVU141
 835 0002 0D46     		mov	r5, r1	@ ptr, tmp125
 836              	.LBB151:
 837              	@ /home/ros/Downloads/opentx/radio/src/bin_allocator.cpp:92:   if (nsize == 0) {
 838              		.loc 1 92 3 view .LVU142
 839 0004 1C46     		mov	r4, r3	@ nsize, tmp126
 840 0006 5BB9     		cbnz	r3, .L52	@ nsize,
  93:/home/ros/Downloads/opentx/radio/src/bin_allocator.cpp ****     if (ptr) {   // avoid a bunch of NULL pointer free calls
 841              		.loc 1 93 5 is_stmt 1 view .LVU143
 842 0008 09B9     		cbnz	r1, .L53	@ ptr,
 843              	.LVL55:
 844              	.L60:
 845              	.LBB152:
  94:/home/ros/Downloads/opentx/radio/src/bin_allocator.cpp ****       if (!bin_free(ptr)) {
  95:/home/ros/Downloads/opentx/radio/src/bin_allocator.cpp ****         // not our range, use libc allocator
  96:/home/ros/Downloads/opentx/radio/src/bin_allocator.cpp ****         // TRACE("libc free %p", ptr);
  97:/home/ros/Downloads/opentx/radio/src/bin_allocator.cpp ****         free(ptr);
  98:/home/ros/Downloads/opentx/radio/src/bin_allocator.cpp ****       }
  99:/home/ros/Downloads/opentx/radio/src/bin_allocator.cpp ****     }
 100:/home/ros/Downloads/opentx/radio/src/bin_allocator.cpp ****     return nullptr;
 101:/home/ros/Downloads/opentx/radio/src/bin_allocator.cpp ****   }
 102:/home/ros/Downloads/opentx/radio/src/bin_allocator.cpp ****   else {
 103:/home/ros/Downloads/opentx/radio/src/bin_allocator.cpp **** #if defined(DEBUG)
 104:/home/ros/Downloads/opentx/radio/src/bin_allocator.cpp ****     if (SimulateMallocFailure < 0 ) {
 105:/home/ros/Downloads/opentx/radio/src/bin_allocator.cpp ****       //delayed failure
 106:/home/ros/Downloads/opentx/radio/src/bin_allocator.cpp ****       if (++SimulateMallocFailure == 0) {
 107:/home/ros/Downloads/opentx/radio/src/bin_allocator.cpp ****         SimulateMallocFailure = 1;
 108:/home/ros/Downloads/opentx/radio/src/bin_allocator.cpp ****       }
 109:/home/ros/Downloads/opentx/radio/src/bin_allocator.cpp ****     }
 110:/home/ros/Downloads/opentx/radio/src/bin_allocator.cpp ****     if ( SimulateMallocFailure > 0) {
 111:/home/ros/Downloads/opentx/radio/src/bin_allocator.cpp ****       // simulate one malloc failure
 112:/home/ros/Downloads/opentx/radio/src/bin_allocator.cpp ****       TRACE("bin_l_alloc(): simulating malloc failure at %p[%lu]", ptr, nsize);
 113:/home/ros/Downloads/opentx/radio/src/bin_allocator.cpp ****       return 0;
 846              		.loc 1 113 7 view .LVU144
 847              	@ /home/ros/Downloads/opentx/radio/src/bin_allocator.cpp:113:       return 0;
 848              		.loc 1 113 14 is_stmt 0 view .LVU145
 849 000a 0020     		movs	r0, #0	@ <retval>,
 850              	.L51:
 851              	.LBE152:
 852              	.LBE151:
 853              	@ /home/ros/Downloads/opentx/radio/src/bin_allocator.cpp:131: }
ARM GAS  /tmp/cc05DVyr.s 			page 21


 114:/home/ros/Downloads/opentx/radio/src/bin_allocator.cpp ****     }
 115:/home/ros/Downloads/opentx/radio/src/bin_allocator.cpp **** #endif // #if defined(DEBUG)
 116:/home/ros/Downloads/opentx/radio/src/bin_allocator.cpp ****     // try our allocator, if it fails use libc allocator
 117:/home/ros/Downloads/opentx/radio/src/bin_allocator.cpp ****     void * res = bin_realloc(ptr, nsize);
 118:/home/ros/Downloads/opentx/radio/src/bin_allocator.cpp ****     if (res && ptr) {
 119:/home/ros/Downloads/opentx/radio/src/bin_allocator.cpp ****       // TRACE("OUR realloc %p[%lu] -> %p[%lu]", ptr, osize, res, nsize); 
 120:/home/ros/Downloads/opentx/radio/src/bin_allocator.cpp ****     }
 121:/home/ros/Downloads/opentx/radio/src/bin_allocator.cpp ****     if (res == 0) {
 122:/home/ros/Downloads/opentx/radio/src/bin_allocator.cpp ****       res = realloc(ptr, nsize);
 123:/home/ros/Downloads/opentx/radio/src/bin_allocator.cpp ****       // TRACE("libc realloc %p[%lu] -> %p[%lu]", ptr, osize, res, nsize);
 124:/home/ros/Downloads/opentx/radio/src/bin_allocator.cpp ****       // if (res == 0 ){
 125:/home/ros/Downloads/opentx/radio/src/bin_allocator.cpp ****       //   TRACE("realloc FAILURE %lu", nsize);
 126:/home/ros/Downloads/opentx/radio/src/bin_allocator.cpp ****       //   dumpFreeMemory();
 127:/home/ros/Downloads/opentx/radio/src/bin_allocator.cpp ****       // }
 128:/home/ros/Downloads/opentx/radio/src/bin_allocator.cpp ****     }
 129:/home/ros/Downloads/opentx/radio/src/bin_allocator.cpp ****     return res;
 130:/home/ros/Downloads/opentx/radio/src/bin_allocator.cpp ****   }
 131:/home/ros/Downloads/opentx/radio/src/bin_allocator.cpp **** }
 854              		.loc 1 131 1 view .LVU146
 855 000c 38BD     		pop	{r3, r4, r5, pc}	@
 856              	.LVL56:
 857              	.L53:
 858              	.LBB155:
  94:/home/ros/Downloads/opentx/radio/src/bin_allocator.cpp ****       if (!bin_free(ptr)) {
 859              		.loc 1 94 7 is_stmt 1 view .LVU147
 860              	@ /home/ros/Downloads/opentx/radio/src/bin_allocator.cpp:94:       if (!bin_free(ptr)) {
  94:/home/ros/Downloads/opentx/radio/src/bin_allocator.cpp ****       if (!bin_free(ptr)) {
 861              		.loc 1 94 20 is_stmt 0 view .LVU148
 862 000e 0846     		mov	r0, r1	@, ptr
 863              	.LVL57:
  94:/home/ros/Downloads/opentx/radio/src/bin_allocator.cpp ****       if (!bin_free(ptr)) {
 864              		.loc 1 94 20 view .LVU149
 865 0010 FFF7FEFF 		bl	_Z8bin_freePv		@
 866              	.LVL58:
 867              	@ /home/ros/Downloads/opentx/radio/src/bin_allocator.cpp:94:       if (!bin_free(ptr)) {
  94:/home/ros/Downloads/opentx/radio/src/bin_allocator.cpp ****       if (!bin_free(ptr)) {
 868              		.loc 1 94 7 view .LVU150
 869 0014 0028     		cmp	r0, #0	@ tmp118
 870 0016 F8D1     		bne	.L60	@
  97:/home/ros/Downloads/opentx/radio/src/bin_allocator.cpp ****       }
 871              		.loc 1 97 9 is_stmt 1 view .LVU151
 872              	@ /home/ros/Downloads/opentx/radio/src/bin_allocator.cpp:97:         free(ptr);
  97:/home/ros/Downloads/opentx/radio/src/bin_allocator.cpp ****       }
 873              		.loc 1 97 13 is_stmt 0 view .LVU152
 874 0018 2846     		mov	r0, r5	@, ptr
 875 001a FFF7FEFF 		bl	free		@
 876              	.LVL59:
 877 001e F4E7     		b	.L60		@
 878              	.LVL60:
 879              	.L52:
 880              	.LBB153:
 104:/home/ros/Downloads/opentx/radio/src/bin_allocator.cpp ****       //delayed failure
 881              		.loc 1 104 5 is_stmt 1 view .LVU153
 882              	@ /home/ros/Downloads/opentx/radio/src/bin_allocator.cpp:104:     if (SimulateMallocFailure < 0 ) {
 104:/home/ros/Downloads/opentx/radio/src/bin_allocator.cpp ****       //delayed failure
 883              		.loc 1 104 31 is_stmt 0 view .LVU154
 884 0020 0E4A     		ldr	r2, .L61	@ tmp119,
ARM GAS  /tmp/cc05DVyr.s 			page 22


 885              	.LVL61:
 104:/home/ros/Downloads/opentx/radio/src/bin_allocator.cpp ****       //delayed failure
 886              		.loc 1 104 31 view .LVU155
 887 0022 1368     		ldr	r3, [r2]	@ SimulateMallocFailure.13_2, SimulateMallocFailure
 888              	.LVL62:
 889              	@ /home/ros/Downloads/opentx/radio/src/bin_allocator.cpp:104:     if (SimulateMallocFailure < 0 ) {
 104:/home/ros/Downloads/opentx/radio/src/bin_allocator.cpp ****       //delayed failure
 890              		.loc 1 104 5 view .LVU156
 891 0024 002B     		cmp	r3, #0	@ SimulateMallocFailure.13_2,
 892 0026 09DA     		bge	.L56		@,
 106:/home/ros/Downloads/opentx/radio/src/bin_allocator.cpp ****         SimulateMallocFailure = 1;
 893              		.loc 1 106 7 is_stmt 1 view .LVU157
 894 0028 0133     		adds	r3, r3, #1	@ _3, SimulateMallocFailure.13_2,
 895 002a 14D1     		bne	.L57		@,
 107:/home/ros/Downloads/opentx/radio/src/bin_allocator.cpp ****       }
 896              		.loc 1 107 9 view .LVU158
 897              	@ /home/ros/Downloads/opentx/radio/src/bin_allocator.cpp:107:         SimulateMallocFailure = 1;
 107:/home/ros/Downloads/opentx/radio/src/bin_allocator.cpp ****       }
 898              		.loc 1 107 31 is_stmt 0 view .LVU159
 899 002c 0123     		movs	r3, #1	@ tmp121,
 900 002e 1360     		str	r3, [r2]	@ tmp121, SimulateMallocFailure
 110:/home/ros/Downloads/opentx/radio/src/bin_allocator.cpp ****       // simulate one malloc failure
 901              		.loc 1 110 5 is_stmt 1 view .LVU160
 902              	.L58:
 112:/home/ros/Downloads/opentx/radio/src/bin_allocator.cpp ****       return 0;
 903              		.loc 1 112 7 view .LVU161
 112:/home/ros/Downloads/opentx/radio/src/bin_allocator.cpp ****       return 0;
 904              		.loc 1 112 7 view .LVU162
 905 0030 2246     		mov	r2, r4	@, nsize
 906 0032 2946     		mov	r1, r5	@, ptr
 907              	.LVL63:
 112:/home/ros/Downloads/opentx/radio/src/bin_allocator.cpp ****       return 0;
 908              		.loc 1 112 7 is_stmt 0 view .LVU163
 909 0034 0A48     		ldr	r0, .L61+4	@,
 910              	.LVL64:
 112:/home/ros/Downloads/opentx/radio/src/bin_allocator.cpp ****       return 0;
 911              		.loc 1 112 7 view .LVU164
 912 0036 FFF7FEFF 		bl	serialPrintf		@
 913              	.LVL65:
 914 003a E6E7     		b	.L60		@
 915              	.LVL66:
 916              	.L56:
 110:/home/ros/Downloads/opentx/radio/src/bin_allocator.cpp ****       // simulate one malloc failure
 917              		.loc 1 110 5 is_stmt 1 view .LVU165
 918 003c F8D1     		bne	.L58		@,
 919              	.L59:
 117:/home/ros/Downloads/opentx/radio/src/bin_allocator.cpp ****     if (res && ptr) {
 920              		.loc 1 117 5 view .LVU166
 921              	@ /home/ros/Downloads/opentx/radio/src/bin_allocator.cpp:117:     void * res = bin_realloc(ptr, nsi
 117:/home/ros/Downloads/opentx/radio/src/bin_allocator.cpp ****     if (res && ptr) {
 922              		.loc 1 117 29 is_stmt 0 view .LVU167
 923 003e 2146     		mov	r1, r4	@, nsize
 924              	.LVL67:
 117:/home/ros/Downloads/opentx/radio/src/bin_allocator.cpp ****     if (res && ptr) {
 925              		.loc 1 117 29 view .LVU168
 926 0040 2846     		mov	r0, r5	@, ptr
 927              	.LVL68:
ARM GAS  /tmp/cc05DVyr.s 			page 23


 117:/home/ros/Downloads/opentx/radio/src/bin_allocator.cpp ****     if (res && ptr) {
 928              		.loc 1 117 29 view .LVU169
 929 0042 FFF7FEFF 		bl	_Z11bin_reallocPvj		@
 930              	.LVL69:
 118:/home/ros/Downloads/opentx/radio/src/bin_allocator.cpp ****       // TRACE("OUR realloc %p[%lu] -> %p[%lu]", ptr, osize, res, nsize); 
 931              		.loc 1 118 5 is_stmt 1 view .LVU170
 121:/home/ros/Downloads/opentx/radio/src/bin_allocator.cpp ****       res = realloc(ptr, nsize);
 932              		.loc 1 121 5 view .LVU171
 933 0046 0028     		cmp	r0, #0	@ <retval>
 934 0048 E0D1     		bne	.L51	@
 122:/home/ros/Downloads/opentx/radio/src/bin_allocator.cpp ****       // TRACE("libc realloc %p[%lu] -> %p[%lu]", ptr, osize, res, nsize);
 935              		.loc 1 122 7 view .LVU172
 936              	@ /home/ros/Downloads/opentx/radio/src/bin_allocator.cpp:122:       res = realloc(ptr, nsize);
 122:/home/ros/Downloads/opentx/radio/src/bin_allocator.cpp ****       // TRACE("libc realloc %p[%lu] -> %p[%lu]", ptr, osize, res, nsize);
 937              		.loc 1 122 20 is_stmt 0 view .LVU173
 938 004a 2146     		mov	r1, r4	@, nsize
 939 004c 2846     		mov	r0, r5	@, ptr
 940              	.LVL70:
 122:/home/ros/Downloads/opentx/radio/src/bin_allocator.cpp ****       // TRACE("libc realloc %p[%lu] -> %p[%lu]", ptr, osize, res, nsize);
 941              		.loc 1 122 20 view .LVU174
 942              	.LBE153:
 943              	.LBE155:
 944              	@ /home/ros/Downloads/opentx/radio/src/bin_allocator.cpp:131: }
 945              		.loc 1 131 1 view .LVU175
 946 004e BDE83840 		pop	{r3, r4, r5, lr}	@
 947              	.LCFI5:
 948              		.cfi_remember_state
 949              		.cfi_restore 14
 950              		.cfi_restore 5
 951              		.cfi_restore 4
 952              		.cfi_restore 3
 953              		.cfi_def_cfa_offset 0
 954              	.LVL71:
 955              	.LBB156:
 956              	.LBB154:
 957              	@ /home/ros/Downloads/opentx/radio/src/bin_allocator.cpp:122:       res = realloc(ptr, nsize);
 122:/home/ros/Downloads/opentx/radio/src/bin_allocator.cpp ****       // TRACE("libc realloc %p[%lu] -> %p[%lu]", ptr, osize, res, nsize);
 958              		.loc 1 122 20 view .LVU176
 959 0052 FFF7FEBF 		b	realloc		@
 960              	.LVL72:
 961              	.L57:
 962              	.LCFI6:
 963              		.cfi_restore_state
 964              	@ /home/ros/Downloads/opentx/radio/src/bin_allocator.cpp:106:       if (++SimulateMallocFailure == 
 106:/home/ros/Downloads/opentx/radio/src/bin_allocator.cpp ****         SimulateMallocFailure = 1;
 965              		.loc 1 106 35 view .LVU177
 966 0056 1360     		str	r3, [r2]	@ _3, SimulateMallocFailure
 967 0058 F1E7     		b	.L59		@
 968              	.L62:
 969 005a 00BF     		.align	2
 970              	.L61:
 971 005c 00000000 		.word	.LANCHOR0
 972 0060 00000000 		.word	.LC1
 973              	.LBE154:
 974              	.LBE156:
 975              		.cfi_endproc
 976              	.LFE712:
ARM GAS  /tmp/cc05DVyr.s 			page 24


 977              		.size	_Z11bin_l_allocPvS_jj, .-_Z11bin_l_allocPvS_jj
 978              		.section	.text.startup._GLOBAL__sub_I_slots1,"ax",%progbits
 979              		.align	1
 980              		.syntax unified
 981              		.thumb
 982              		.thumb_func
 983              		.fpu softvfp
 984              		.type	_GLOBAL__sub_I_slots1, %function
 985              	_GLOBAL__sub_I_slots1:
 986              	.LFB768:
 987              		.loc 1 131 1 is_stmt 1 view -0
 988              		.cfi_startproc
 989              		@ args = 0, pretend = 0, frame = 0
 990              		@ frame_needed = 0, uses_anonymous_args = 0
 991              	.LBB169:
 992              	.LBI169:
 993              		.loc 1 131 1 view .LVU179
 994              	.LVL73:
 995              	.LBB170:
 996              	.LBB171:
 997              	.LBI171:
  35:/home/ros/Downloads/opentx/radio/src/bin_allocator.h ****     memclear(Bins, sizeof(Bins));
 998              		.loc 2 35 3 view .LVU180
 999              	.LBE171:
 1000              	.LBE170:
 1001              	.LBE169:
 1002              	@ /home/ros/Downloads/opentx/radio/src/bin_allocator.cpp:131: }
 1003              		.loc 1 131 1 is_stmt 0 view .LVU181
 1004 0000 10B5     		push	{r4, lr}	@
 1005              	.LCFI7:
 1006              		.cfi_def_cfa_offset 8
 1007              		.cfi_offset 4, -8
 1008              		.cfi_offset 14, -4
 1009              	.LBB195:
 1010              	.LBB193:
 1011              	.LBB180:
 1012              	.LBB172:
 1013              	.LBB173:
 1014              	@ /home/ros/Downloads/opentx/radio/src/bin_allocator.h:35:   BinAllocator() : NoUsedBins(0) {
  35:/home/ros/Downloads/opentx/radio/src/bin_allocator.h ****     memclear(Bins, sizeof(Bins));
 1015              		.loc 2 35 32 view .LVU182
 1016 0002 0024     		movs	r4, #0	@ tmp113,
 1017 0004 0848     		ldr	r0, .L64	@ tmp110,
 1018              	.LBB174:
 1019              	.LBB175:
 1020              	@ /home/ros/Downloads/opentx/radio/src/opentx_helpers.h:34:   memset(p, 0, size);
 1021              		.file 3 "/home/ros/Downloads/opentx/radio/src/opentx_helpers.h"
   1:/home/ros/Downloads/opentx/radio/src/opentx_helpers.h **** /*
   2:/home/ros/Downloads/opentx/radio/src/opentx_helpers.h ****  * Copyright (C) OpenTX
   3:/home/ros/Downloads/opentx/radio/src/opentx_helpers.h ****  *
   4:/home/ros/Downloads/opentx/radio/src/opentx_helpers.h ****  * Based on code named
   5:/home/ros/Downloads/opentx/radio/src/opentx_helpers.h ****  *   th9x - http://code.google.com/p/th9x
   6:/home/ros/Downloads/opentx/radio/src/opentx_helpers.h ****  *   er9x - http://code.google.com/p/er9x
   7:/home/ros/Downloads/opentx/radio/src/opentx_helpers.h ****  *   gruvin9x - http://code.google.com/p/gruvin9x
   8:/home/ros/Downloads/opentx/radio/src/opentx_helpers.h ****  *
   9:/home/ros/Downloads/opentx/radio/src/opentx_helpers.h ****  * License GPLv2: http://www.gnu.org/licenses/gpl-2.0.html
  10:/home/ros/Downloads/opentx/radio/src/opentx_helpers.h ****  *
ARM GAS  /tmp/cc05DVyr.s 			page 25


  11:/home/ros/Downloads/opentx/radio/src/opentx_helpers.h ****  * This program is free software; you can redistribute it and/or modify
  12:/home/ros/Downloads/opentx/radio/src/opentx_helpers.h ****  * it under the terms of the GNU General Public License version 2 as
  13:/home/ros/Downloads/opentx/radio/src/opentx_helpers.h ****  * published by the Free Software Foundation.
  14:/home/ros/Downloads/opentx/radio/src/opentx_helpers.h ****  *
  15:/home/ros/Downloads/opentx/radio/src/opentx_helpers.h ****  * This program is distributed in the hope that it will be useful,
  16:/home/ros/Downloads/opentx/radio/src/opentx_helpers.h ****  * but WITHOUT ANY WARRANTY; without even the implied warranty of
  17:/home/ros/Downloads/opentx/radio/src/opentx_helpers.h ****  * MERCHANTABILITY or FITNESS FOR A PARTICULAR PURPOSE.  See the
  18:/home/ros/Downloads/opentx/radio/src/opentx_helpers.h ****  * GNU General Public License for more details.
  19:/home/ros/Downloads/opentx/radio/src/opentx_helpers.h ****  */
  20:/home/ros/Downloads/opentx/radio/src/opentx_helpers.h **** 
  21:/home/ros/Downloads/opentx/radio/src/opentx_helpers.h **** #ifndef _OPENTX_HELPERS_H_
  22:/home/ros/Downloads/opentx/radio/src/opentx_helpers.h **** #define _OPENTX_HELPERS_H_
  23:/home/ros/Downloads/opentx/radio/src/opentx_helpers.h **** 
  24:/home/ros/Downloads/opentx/radio/src/opentx_helpers.h **** #include <string.h>
  25:/home/ros/Downloads/opentx/radio/src/opentx_helpers.h **** 
  26:/home/ros/Downloads/opentx/radio/src/opentx_helpers.h **** template<class t> inline t min(t a, t b) { return a<b?a:b; }
  27:/home/ros/Downloads/opentx/radio/src/opentx_helpers.h **** template<class t> inline t max(t a, t b) { return a>b?a:b; }
  28:/home/ros/Downloads/opentx/radio/src/opentx_helpers.h **** template<class t> inline t sgn(t a) { return a>0 ? 1 : (a < 0 ? -1 : 0); }
  29:/home/ros/Downloads/opentx/radio/src/opentx_helpers.h **** template<class t> inline t limit(t mi, t x, t ma) { return min(max(mi,x),ma); }
  30:/home/ros/Downloads/opentx/radio/src/opentx_helpers.h **** template<class t> inline void SWAP(t & a, t & b) { t tmp = b; b = a; a = tmp; }
  31:/home/ros/Downloads/opentx/radio/src/opentx_helpers.h **** 
  32:/home/ros/Downloads/opentx/radio/src/opentx_helpers.h **** inline void memclear(void * p, size_t size)
  33:/home/ros/Downloads/opentx/radio/src/opentx_helpers.h **** {
  34:/home/ros/Downloads/opentx/radio/src/opentx_helpers.h ****   memset(p, 0, size);
 1022              		.loc 3 34 9 view .LVU183
 1023 0006 2146     		mov	r1, r4	@, tmp113
 1024              	.LBE175:
 1025              	.LBE174:
 1026              	@ /home/ros/Downloads/opentx/radio/src/bin_allocator.h:35:   BinAllocator() : NoUsedBins(0) {
  35:/home/ros/Downloads/opentx/radio/src/bin_allocator.h ****     memclear(Bins, sizeof(Bins));
 1027              		.loc 2 35 32 view .LVU184
 1028 0008 00F5AF53 		add	r3, r0, #5600	@ tmp112, tmp110,
 1029              	.LBB178:
 1030              	.LBB176:
 1031              	@ /home/ros/Downloads/opentx/radio/src/opentx_helpers.h:34:   memset(p, 0, size);
 1032              		.loc 3 34 9 view .LVU185
 1033 000c 4FF4AF52 		mov	r2, #5600	@,
 1034              	.LBE176:
 1035              	.LBE178:
 1036              	@ /home/ros/Downloads/opentx/radio/src/bin_allocator.h:35:   BinAllocator() : NoUsedBins(0) {
  35:/home/ros/Downloads/opentx/radio/src/bin_allocator.h ****     memclear(Bins, sizeof(Bins));
 1037              		.loc 2 35 32 view .LVU186
 1038 0010 1C60     		str	r4, [r3]	@ tmp113, MEM[(struct BinAllocator *)&slots1].NoUsedBins
 1039              	.LVL74:
 1040              	.LBB179:
 1041              	.LBI174:
  32:/home/ros/Downloads/opentx/radio/src/opentx_helpers.h **** {
 1042              		.loc 3 32 13 is_stmt 1 view .LVU187
 1043              	.LBB177:
 1044              		.loc 3 34 3 view .LVU188
 1045              	@ /home/ros/Downloads/opentx/radio/src/opentx_helpers.h:34:   memset(p, 0, size);
 1046              		.loc 3 34 9 is_stmt 0 view .LVU189
 1047 0012 FFF7FEFF 		bl	memset		@
 1048              	.LVL75:
 1049              		.loc 3 34 9 view .LVU190
 1050              	.LBE177:
 1051              	.LBE179:
ARM GAS  /tmp/cc05DVyr.s 			page 26


 1052              	.LBE173:
 1053              	.LBE172:
 1054              	.LBE180:
 1055              	.LBB181:
 1056              	.LBI181:
  35:/home/ros/Downloads/opentx/radio/src/bin_allocator.h ****     memclear(Bins, sizeof(Bins));
 1057              		.loc 2 35 3 is_stmt 1 view .LVU191
 1058              	.LBB182:
 1059              	.LBB183:
 1060              	@ /home/ros/Downloads/opentx/radio/src/bin_allocator.h:35:   BinAllocator() : NoUsedBins(0) {
  35:/home/ros/Downloads/opentx/radio/src/bin_allocator.h ****     memclear(Bins, sizeof(Bins));
 1061              		.loc 2 35 32 is_stmt 0 view .LVU192
 1062 0016 41F2F812 		movw	r2, #4600	@ tmp120,
 1063 001a 0448     		ldr	r0, .L64+4	@ tmp118,
 1064              	.LBB184:
 1065              	.LBB185:
 1066              	@ /home/ros/Downloads/opentx/radio/src/opentx_helpers.h:34:   memset(p, 0, size);
 1067              		.loc 3 34 9 view .LVU193
 1068 001c 2146     		mov	r1, r4	@, tmp113
 1069              	.LBE185:
 1070              	.LBE184:
 1071              	@ /home/ros/Downloads/opentx/radio/src/bin_allocator.h:35:   BinAllocator() : NoUsedBins(0) {
  35:/home/ros/Downloads/opentx/radio/src/bin_allocator.h ****     memclear(Bins, sizeof(Bins));
 1072              		.loc 2 35 32 view .LVU194
 1073 001e 8450     		str	r4, [r0, r2]	@ tmp113, MEM[(struct BinAllocator *)&slots2].NoUsedBins
 1074              	.LVL76:
 1075              	.LBB188:
 1076              	.LBI184:
  32:/home/ros/Downloads/opentx/radio/src/opentx_helpers.h **** {
 1077              		.loc 3 32 13 is_stmt 1 view .LVU195
 1078              	.LBB186:
 1079              		.loc 3 34 3 view .LVU196
 1080              	.LBE186:
 1081              	.LBE188:
 1082              	.LBE183:
 1083              	.LBE182:
 1084              	.LBE181:
 1085              	.LBE193:
 1086              	.LBE195:
 1087              	@ /home/ros/Downloads/opentx/radio/src/bin_allocator.cpp:131: }
 1088              		.loc 1 131 1 is_stmt 0 view .LVU197
 1089 0020 BDE81040 		pop	{r4, lr}	@
 1090              	.LCFI8:
 1091              		.cfi_restore 14
 1092              		.cfi_restore 4
 1093              		.cfi_def_cfa_offset 0
 1094              	.LBB196:
 1095              	.LBB194:
 1096              	.LBB192:
 1097              	.LBB191:
 1098              	.LBB190:
 1099              	.LBB189:
 1100              	.LBB187:
 1101              	@ /home/ros/Downloads/opentx/radio/src/opentx_helpers.h:34:   memset(p, 0, size);
 1102              		.loc 3 34 9 view .LVU198
 1103 0024 FFF7FEBF 		b	memset		@
 1104              	.LVL77:
ARM GAS  /tmp/cc05DVyr.s 			page 27


 1105              	.L65:
 1106              		.align	2
 1107              	.L64:
 1108 0028 00000000 		.word	slots1
 1109 002c 00000000 		.word	slots2
 1110              	.LBE187:
 1111              	.LBE189:
 1112              	.LBE190:
 1113              	.LBE191:
 1114              	.LBE192:
 1115              	.LBE194:
 1116              	.LBE196:
 1117              		.cfi_endproc
 1118              	.LFE768:
 1119              		.size	_GLOBAL__sub_I_slots1, .-_GLOBAL__sub_I_slots1
 1120              		.section	.init_array,"aw",%init_array
 1121              		.align	2
 1122 0000 00000000 		.word	_GLOBAL__sub_I_slots1(target1)
 1123              		.global	SimulateMallocFailure
 1124              		.global	slots2
 1125              		.global	slots1
 1126              		.section	.bss.SimulateMallocFailure,"aw",%nobits
 1127              		.align	2
 1128              		.set	.LANCHOR0,. + 0
 1129              		.type	SimulateMallocFailure, %object
 1130              		.size	SimulateMallocFailure, 4
 1131              	SimulateMallocFailure:
 1132 0000 00000000 		.space	4
 1133              		.section	.bss.slots1,"aw",%nobits
 1134              		.align	2
 1135              		.type	slots1, %object
 1136              		.size	slots1, 5604
 1137              	slots1:
 1138 0000 00000000 		.space	5604
 1138      00000000 
 1138      00000000 
 1138      00000000 
 1138      00000000 
 1139              		.section	.bss.slots2,"aw",%nobits
 1140              		.align	2
 1141              		.type	slots2, %object
 1142              		.size	slots2, 4604
 1143              	slots2:
 1144 0000 00000000 		.space	4604
 1144      00000000 
 1144      00000000 
 1144      00000000 
 1144      00000000 
 1145              		.text
 1146              	.Letext0:
 1147              		.file 4 "/usr/include/newlib/c++/9.2.1/cstdlib"
 1148              		.file 5 "/usr/include/newlib/c++/9.2.1/bits/std_abs.h"
 1149              		.file 6 "/usr/include/newlib/c++/9.2.1/cstring"
 1150              		.file 7 "/usr/include/newlib/c++/9.2.1/bits/cpp_type_traits.h"
 1151              		.file 8 "/usr/include/newlib/c++/9.2.1/cmath"
 1152              		.file 9 "/usr/include/newlib/c++/9.2.1/arm-none-eabi/thumb/v7-m/nofp/bits/c++config.h"
 1153              		.file 10 "/usr/lib/gcc/arm-none-eabi/9.2.1/include/stddef.h"
ARM GAS  /tmp/cc05DVyr.s 			page 28


 1154              		.file 11 "/usr/include/newlib/sys/_types.h"
 1155              		.file 12 "/usr/include/newlib/sys/reent.h"
 1156              		.file 13 "/usr/include/newlib/sys/lock.h"
 1157              		.file 14 "/usr/include/newlib/stdlib.h"
 1158              		.file 15 "/usr/include/newlib/c++/9.2.1/stdlib.h"
 1159              		.file 16 "/usr/lib/gcc/arm-none-eabi/9.2.1/include/stdint.h"
 1160              		.file 17 "/home/ros/Downloads/opentx/radio/src/opentx_types.h"
 1161              		.file 18 "/home/ros/Downloads/opentx/radio/src/targets/common/arm/stm32/cpu_id.h"
 1162              		.file 19 "/home/ros/Downloads/opentx/radio/src/thirdparty/STM32F2xx_StdPeriph_Lib_V1.1.0/Libraries
 1163              		.file 20 "/home/ros/Downloads/opentx/radio/src/thirdparty/STM32F2xx_StdPeriph_Lib_V1.1.0/Libraries
 1164              		.file 21 "/home/ros/Downloads/opentx/radio/src/targets/common/arm/stm32/usb_driver.h"
 1165              		.file 22 "/home/ros/Downloads/opentx/radio/src/thirdparty/STM32_USB-Host-Device_Lib_V2.2.0/Librari
 1166              		.file 23 "/home/ros/Downloads/opentx/radio/src/thirdparty/STM32_USB-Host-Device_Lib_V2.2.0/Librari
 1167              		.file 24 "/home/ros/Downloads/opentx/radio/src/thirdparty/STM32_USB-Host-Device_Lib_V2.2.0/Librari
 1168              		.file 25 "/home/ros/Downloads/opentx/radio/src/thirdparty/STM32_USB-Host-Device_Lib_V2.2.0/Librari
 1169              		.file 26 "/home/ros/Downloads/opentx/radio/src/thirdparty/STM32_USB-Host-Device_Lib_V2.2.0/Librari
 1170              		.file 27 "/home/ros/Downloads/opentx/radio/src/targets/common/arm/stm32/usbd_desc.h"
 1171              		.file 28 "/home/ros/Downloads/opentx/radio/src/targets/taranis/board.h"
 1172              		.file 29 "/home/ros/Downloads/opentx/radio/src/dataconstants.h"
 1173              		.file 30 "/home/ros/Downloads/opentx/radio/src/globals.h"
 1174              		.file 31 "/home/ros/Downloads/opentx/radio/src/rtc.h"
 1175              		.file 32 "/home/ros/Downloads/opentx/radio/src/datastructs.h"
 1176              		.file 33 "/home/ros/Downloads/opentx/radio/src/myeeprom.h"
 1177              		.file 34 "/home/ros/Downloads/opentx/radio/src/io/frsky_sport.h"
 1178              		.file 35 "/home/ros/Downloads/opentx/radio/src/timers.h"
 1179              		.file 36 "/home/ros/Downloads/opentx/radio/src/storage/storage.h"
 1180              		.file 37 "/home/ros/Downloads/opentx/radio/src/storage/eeprom_common.h"
 1181              		.file 38 "/home/ros/Downloads/opentx/radio/src/storage/eeprom_rlc.h"
 1182              		.file 39 "/home/ros/Downloads/opentx/radio/src/pulses/pulses_common.h"
 1183              		.file 40 "/home/ros/Downloads/opentx/radio/src/pulses/pxx.h"
 1184              		.file 41 "/home/ros/Downloads/opentx/radio/src/crc.h"
 1185              		.file 42 "/home/ros/Downloads/opentx/radio/src/pulses/pxx1.h"
 1186              		.file 43 "/home/ros/Downloads/opentx/radio/src/fifo.h"
 1187              		.file 44 "/home/ros/Downloads/opentx/radio/src/io/frsky_pxx2.h"
 1188              		.file 45 "/home/ros/Downloads/opentx/radio/src/pulses/pxx2.h"
 1189              		.file 46 "/home/ros/Downloads/opentx/radio/src/pulses/multi.h"
 1190              		.file 47 "/usr/include/newlib/string.h"
 1191              		.file 48 "/home/ros/Downloads/opentx/radio/src/telemetry/telemetry_holders.h"
 1192              		.file 49 "/home/ros/Downloads/opentx/radio/src/telemetry/frsky.h"
 1193              		.file 50 "/home/ros/Downloads/opentx/radio/src/telemetry/crossfire.h"
 1194              		.file 51 "/home/ros/Downloads/opentx/radio/src/telemetry/ghost.h"
 1195              		.file 52 "/home/ros/Downloads/opentx/radio/src/telemetry/multi.h"
 1196              		.file 53 "/home/ros/Downloads/opentx/radio/src/telemetry/telemetry.h"
 1197              		.file 54 "/home/ros/Downloads/opentx/radio/src/telemetry/telemetry_sensors.h"
 1198              		.file 55 "/home/ros/Downloads/opentx/radio/src/pulses/modules_helpers.h"
 1199              		.file 56 "/home/ros/Downloads/opentx/radio/src/thirdparty/CoOS/kernel/CoOS.h"
 1200              		.file 57 "/home/ros/Downloads/opentx/radio/src/rtos.h"
 1201              		.file 58 "/home/ros/Downloads/opentx/radio/src/thirdparty/FatFs/integer.h"
 1202              		.file 59 "/home/ros/Downloads/opentx/radio/src/thirdparty/FatFs/ff.h"
 1203              		.file 60 "/home/ros/Downloads/opentx/radio/src/pulses/pulses.h"
 1204              		.file 61 "/home/ros/Downloads/opentx/radio/src/opentx.h"
 1205              		.file 62 "/home/ros/Downloads/opentx/radio/src/gui/128x64/lcd.h"
 1206              		.file 63 "/home/ros/Downloads/opentx/radio/src/keys.h"
 1207              		.file 64 "/home/ros/Downloads/opentx/radio/src/gui/common/stdlcd/menus.h"
 1208              		.file 65 "/home/ros/Downloads/opentx/radio/src/gui/128x64/menus.h"
 1209              		.file 66 "/home/ros/Downloads/opentx/radio/src/audio.h"
 1210              		.file 67 "/home/ros/Downloads/opentx/radio/src/gui/128x64/../common/stdlcd/popups.h"
ARM GAS  /tmp/cc05DVyr.s 			page 29


 1211              		.file 68 "/home/ros/Downloads/opentx/radio/src/gui/128x64/gui.h"
 1212              		.file 69 "/home/ros/Downloads/opentx/radio/src/gvars.h"
 1213              		.file 70 "/home/ros/Downloads/opentx/radio/src/tasks.h"
 1214              		.file 71 "/home/ros/Downloads/opentx/radio/src/trainer.h"
 1215              		.file 72 "/home/ros/Downloads/opentx/radio/src/translations.h"
 1216              		.file 73 "/home/ros/Downloads/opentx/radio/src/fonts.h"
 1217              		.file 74 "/home/ros/Downloads/opentx/radio/src/haptic.h"
 1218              		.file 75 "/home/ros/Downloads/opentx/radio/src/sdcard.h"
 1219              		.file 76 "/home/ros/Downloads/opentx/radio/src/bluetooth.h"
 1220              		.file 77 "/usr/include/newlib/math.h"
 1221              		.file 78 "/usr/include/newlib/c++/9.2.1/math.h"
 1222              		.file 79 "/home/ros/Downloads/opentx/radio/src/thirdparty/Lua/src/lua.h"
 1223              		.file 80 "/home/ros/Downloads/opentx/radio/src/thirdparty/Lua/src/lstate.h"
 1224              		.file 81 "/home/ros/Downloads/opentx/radio/src/thirdparty/Lua/src/lauxlib.h"
 1225              		.file 82 "/home/ros/Downloads/opentx/radio/src/thirdparty/Lua/src/llimits.h"
 1226              		.file 83 "/home/ros/Downloads/opentx/radio/src/thirdparty/Lua/src/lobject.h"
 1227              		.file 84 "/home/ros/Downloads/opentx/radio/src/thirdparty/Lua/src/lrotable.h"
 1228              		.file 85 "/home/ros/Downloads/opentx/radio/src/thirdparty/Lua/src/ltm.h"
 1229              		.file 86 "/home/ros/Downloads/opentx/radio/src/thirdparty/Lua/src/lzio.h"
 1230              		.file 87 "/home/ros/Downloads/opentx/radio/src/lua/lua_api.h"
 1231              		.file 88 "/usr/include/newlib/machine/setjmp.h"
 1232              		.file 89 "/home/ros/Downloads/opentx/radio/src/serial.h"
 1233              		.file 90 "<built-in>"
 1234              		.file 91 "/home/ros/Downloads/opentx/radio/src/pulses/afhds3.h"