Archive member included to satisfy reference by file (symbol)

/usr/lib/gcc/arm-none-eabi/9.2.1/../../../arm-none-eabi/lib/thumb/v7-m/nofp/libg_nano.a(lib_a-div.o)
                              CMakeFiles/bootloader.dir/__/__/__/__/__/strhelpers.cpp.o (div)
/usr/lib/gcc/arm-none-eabi/9.2.1/../../../arm-none-eabi/lib/thumb/v7-m/nofp/libg_nano.a(lib_a-init.o)
                              CMakeFiles/bootloader.dir/__/__/__/__/__/thirdparty/STM32F2xx_StdPeriph_Lib_V1.1.0/Libraries/CMSIS/Device/ST/STM32F2xx/Source/Templates/gcc_ride7/startup_stm32f2xx.s.o (__libc_init_array)
/usr/lib/gcc/arm-none-eabi/9.2.1/../../../arm-none-eabi/lib/thumb/v7-m/nofp/libg_nano.a(lib_a-memcmp.o)
                              CMakeFiles/bootloader.dir/__/__/__/__/__/stamp.cpp.o (memcmp)
/usr/lib/gcc/arm-none-eabi/9.2.1/../../../arm-none-eabi/lib/thumb/v7-m/nofp/libg_nano.a(lib_a-memcpy.o)
                              CMakeFiles/bootloader.dir/__/usbd_storage_msd.cpp.o (memcpy)
/usr/lib/gcc/arm-none-eabi/9.2.1/../../../arm-none-eabi/lib/thumb/v7-m/nofp/libg_nano.a(lib_a-memset.o)
                              CMakeFiles/bootloader.dir/__/__/__/__/__/keys.cpp.o (memset)
/usr/lib/gcc/arm-none-eabi/9.2.1/../../../arm-none-eabi/lib/thumb/v7-m/nofp/libg_nano.a(lib_a-strcpy.o)
                              CMakeFiles/bootloader.dir/__/usbd_storage_msd.cpp.o (strcpy)
/usr/lib/gcc/arm-none-eabi/9.2.1/../../../arm-none-eabi/lib/thumb/v7-m/nofp/libg_nano.a(lib_a-strlen-stub.o)
                              CMakeFiles/bootloader.dir/__/usbd_storage_msd.cpp.o (strlen)
/usr/lib/gcc/arm-none-eabi/9.2.1/../../../arm-none-eabi/lib/thumb/v7-m/nofp/libg_nano.a(lib_a-strncmp.o)
                              CMakeFiles/bootloader.dir/__/__/__/__/taranis/bootloader/boot_menu.cpp.o (strncmp)

Allocating common symbols
Common symbol       size              file

MSC_BOT_Data        0x1000            CMakeFiles/bootloader.dir/__/__/__/__/__/thirdparty/STM32_USB-Host-Device_Lib_V2.2.0/Libraries/STM32_USB_Device_Library/Class/msc/src/usbd_msc_bot.c.o
SCSI_blk_nbr        0x4               CMakeFiles/bootloader.dir/__/__/__/__/__/thirdparty/STM32_USB-Host-Device_Lib_V2.2.0/Libraries/STM32_USB_Device_Library/Class/msc/src/usbd_msc_scsi.c.o
SET_TEST_MODE       0x4               CMakeFiles/bootloader.dir/__/__/__/__/__/thirdparty/STM32_USB-Host-Device_Lib_V2.2.0/Libraries/STM32_USB_Device_Library/Core/src/usbd_core.c.o
MSC_BOT_Status      0x1               CMakeFiles/bootloader.dir/__/__/__/__/__/thirdparty/STM32_USB-Host-Device_Lib_V2.2.0/Libraries/STM32_USB_Device_Library/Class/msc/src/usbd_msc_bot.c.o
SCSI_blk_size       0x4               CMakeFiles/bootloader.dir/__/__/__/__/__/thirdparty/STM32_USB-Host-Device_Lib_V2.2.0/Libraries/STM32_USB_Device_Library/Class/msc/src/usbd_msc_scsi.c.o
SCSI_Sense_Head     0x1               CMakeFiles/bootloader.dir/__/__/__/__/__/thirdparty/STM32_USB-Host-Device_Lib_V2.2.0/Libraries/STM32_USB_Device_Library/Class/msc/src/usbd_msc_scsi.c.o
MSC_BOT_cbw         0x20              CMakeFiles/bootloader.dir/__/__/__/__/__/thirdparty/STM32_USB-Host-Device_Lib_V2.2.0/Libraries/STM32_USB_Device_Library/Class/msc/src/usbd_msc_bot.c.o
SCSI_blk_len        0x4               CMakeFiles/bootloader.dir/__/__/__/__/__/thirdparty/STM32_USB-Host-Device_Lib_V2.2.0/Libraries/STM32_USB_Device_Library/Class/msc/src/usbd_msc_scsi.c.o
SCSI_Sense          0x20              CMakeFiles/bootloader.dir/__/__/__/__/__/thirdparty/STM32_USB-Host-Device_Lib_V2.2.0/Libraries/STM32_USB_Device_Library/Class/msc/src/usbd_msc_scsi.c.o
MSC_BOT_csw         0x10              CMakeFiles/bootloader.dir/__/__/__/__/__/thirdparty/STM32_USB-Host-Device_Lib_V2.2.0/Libraries/STM32_USB_Device_Library/Class/msc/src/usbd_msc_bot.c.o
SCSI_blk_addr       0x4               CMakeFiles/bootloader.dir/__/__/__/__/__/thirdparty/STM32_USB-Host-Device_Lib_V2.2.0/Libraries/STM32_USB_Device_Library/Class/msc/src/usbd_msc_scsi.c.o
cdev                0x4               CMakeFiles/bootloader.dir/__/__/__/__/__/thirdparty/STM32_USB-Host-Device_Lib_V2.2.0/Libraries/STM32_USB_Device_Library/Class/msc/src/usbd_msc_scsi.c.o
SCSI_Sense_Tail     0x1               CMakeFiles/bootloader.dir/__/__/__/__/__/thirdparty/STM32_USB-Host-Device_Lib_V2.2.0/Libraries/STM32_USB_Device_Library/Class/msc/src/usbd_msc_scsi.c.o
MSC_BOT_State       0x1               CMakeFiles/bootloader.dir/__/__/__/__/__/thirdparty/STM32_USB-Host-Device_Lib_V2.2.0/Libraries/STM32_USB_Device_Library/Class/msc/src/usbd_msc_bot.c.o
USBD_StrDesc        0x40              CMakeFiles/bootloader.dir/__/usbd_desc.c.o
MSC_BOT_DataLen     0x2               CMakeFiles/bootloader.dir/__/__/__/__/__/thirdparty/STM32_USB-Host-Device_Lib_V2.2.0/Libraries/STM32_USB_Device_Library/Class/msc/src/usbd_msc_bot.c.o

Discarded input sections

 .text          0x0000000000000000        0x0 CMakeFiles/bootloader.dir/__/f2/system_stm32f2xx.c.o
 .data          0x0000000000000000        0x0 CMakeFiles/bootloader.dir/__/f2/system_stm32f2xx.c.o
 .bss           0x0000000000000000        0x0 CMakeFiles/bootloader.dir/__/f2/system_stm32f2xx.c.o
 .text.SystemCoreClockUpdate
                0x0000000000000000       0x74 CMakeFiles/bootloader.dir/__/f2/system_stm32f2xx.c.o
 .data.AHBPrescTable
                0x0000000000000000       0x10 CMakeFiles/bootloader.dir/__/f2/system_stm32f2xx.c.o
 .data.SystemCoreClock
                0x0000000000000000        0x4 CMakeFiles/bootloader.dir/__/f2/system_stm32f2xx.c.o
 .text          0x0000000000000000       0x14 CMakeFiles/bootloader.dir/__/__/__/__/__/thirdparty/STM32F2xx_StdPeriph_Lib_V1.1.0/Libraries/CMSIS/Device/ST/STM32F2xx/Source/Templates/gcc_ride7/startup_stm32f2xx.s.o
 .data          0x0000000000000000        0x0 CMakeFiles/bootloader.dir/__/__/__/__/__/thirdparty/STM32F2xx_StdPeriph_Lib_V1.1.0/Libraries/CMSIS/Device/ST/STM32F2xx/Source/Templates/gcc_ride7/startup_stm32f2xx.s.o
 .bss           0x0000000000000000        0x0 CMakeFiles/bootloader.dir/__/__/__/__/__/thirdparty/STM32F2xx_StdPeriph_Lib_V1.1.0/Libraries/CMSIS/Device/ST/STM32F2xx/Source/Templates/gcc_ride7/startup_stm32f2xx.s.o
 .text          0x0000000000000000        0x0 CMakeFiles/bootloader.dir/__/__/__/__/__/thirdparty/STM32F2xx_StdPeriph_Lib_V1.1.0/Libraries/STM32F2xx_StdPeriph_Driver/src/stm32f2xx_rcc.c.o
 .data          0x0000000000000000        0x0 CMakeFiles/bootloader.dir/__/__/__/__/__/thirdparty/STM32F2xx_StdPeriph_Lib_V1.1.0/Libraries/STM32F2xx_StdPeriph_Driver/src/stm32f2xx_rcc.c.o
 .bss           0x0000000000000000        0x0 CMakeFiles/bootloader.dir/__/__/__/__/__/thirdparty/STM32F2xx_StdPeriph_Lib_V1.1.0/Libraries/STM32F2xx_StdPeriph_Driver/src/stm32f2xx_rcc.c.o
 .text.RCC_DeInit
                0x0000000000000000       0x34 CMakeFiles/bootloader.dir/__/__/__/__/__/thirdparty/STM32F2xx_StdPeriph_Lib_V1.1.0/Libraries/STM32F2xx_StdPeriph_Driver/src/stm32f2xx_rcc.c.o
 .text.RCC_HSEConfig
                0x0000000000000000       0x10 CMakeFiles/bootloader.dir/__/__/__/__/__/thirdparty/STM32F2xx_StdPeriph_Lib_V1.1.0/Libraries/STM32F2xx_StdPeriph_Driver/src/stm32f2xx_rcc.c.o
 .text.RCC_AdjustHSICalibrationValue
                0x0000000000000000       0x14 CMakeFiles/bootloader.dir/__/__/__/__/__/thirdparty/STM32F2xx_StdPeriph_Lib_V1.1.0/Libraries/STM32F2xx_StdPeriph_Driver/src/stm32f2xx_rcc.c.o
 .text.RCC_HSICmd
                0x0000000000000000        0xc CMakeFiles/bootloader.dir/__/__/__/__/__/thirdparty/STM32F2xx_StdPeriph_Lib_V1.1.0/Libraries/STM32F2xx_StdPeriph_Driver/src/stm32f2xx_rcc.c.o
 .text.RCC_LSEConfig
                0x0000000000000000       0x20 CMakeFiles/bootloader.dir/__/__/__/__/__/thirdparty/STM32F2xx_StdPeriph_Lib_V1.1.0/Libraries/STM32F2xx_StdPeriph_Driver/src/stm32f2xx_rcc.c.o
 .text.RCC_LSICmd
                0x0000000000000000        0xc CMakeFiles/bootloader.dir/__/__/__/__/__/thirdparty/STM32F2xx_StdPeriph_Lib_V1.1.0/Libraries/STM32F2xx_StdPeriph_Driver/src/stm32f2xx_rcc.c.o
 .text.RCC_PLLConfig
                0x0000000000000000       0x20 CMakeFiles/bootloader.dir/__/__/__/__/__/thirdparty/STM32F2xx_StdPeriph_Lib_V1.1.0/Libraries/STM32F2xx_StdPeriph_Driver/src/stm32f2xx_rcc.c.o
 .text.RCC_PLLCmd
                0x0000000000000000        0xc CMakeFiles/bootloader.dir/__/__/__/__/__/thirdparty/STM32F2xx_StdPeriph_Lib_V1.1.0/Libraries/STM32F2xx_StdPeriph_Driver/src/stm32f2xx_rcc.c.o
 .text.RCC_PLLI2SConfig
                0x0000000000000000       0x14 CMakeFiles/bootloader.dir/__/__/__/__/__/thirdparty/STM32F2xx_StdPeriph_Lib_V1.1.0/Libraries/STM32F2xx_StdPeriph_Driver/src/stm32f2xx_rcc.c.o
 .text.RCC_PLLI2SCmd
                0x0000000000000000        0xc CMakeFiles/bootloader.dir/__/__/__/__/__/thirdparty/STM32F2xx_StdPeriph_Lib_V1.1.0/Libraries/STM32F2xx_StdPeriph_Driver/src/stm32f2xx_rcc.c.o
 .text.RCC_ClockSecuritySystemCmd
                0x0000000000000000        0xc CMakeFiles/bootloader.dir/__/__/__/__/__/thirdparty/STM32F2xx_StdPeriph_Lib_V1.1.0/Libraries/STM32F2xx_StdPeriph_Driver/src/stm32f2xx_rcc.c.o
 .text.RCC_MCO1Config
                0x0000000000000000       0x14 CMakeFiles/bootloader.dir/__/__/__/__/__/thirdparty/STM32F2xx_StdPeriph_Lib_V1.1.0/Libraries/STM32F2xx_StdPeriph_Driver/src/stm32f2xx_rcc.c.o
 .text.RCC_MCO2Config
                0x0000000000000000       0x14 CMakeFiles/bootloader.dir/__/__/__/__/__/thirdparty/STM32F2xx_StdPeriph_Lib_V1.1.0/Libraries/STM32F2xx_StdPeriph_Driver/src/stm32f2xx_rcc.c.o
 .text.RCC_SYSCLKConfig
                0x0000000000000000       0x14 CMakeFiles/bootloader.dir/__/__/__/__/__/thirdparty/STM32F2xx_StdPeriph_Lib_V1.1.0/Libraries/STM32F2xx_StdPeriph_Driver/src/stm32f2xx_rcc.c.o
 .text.RCC_GetSYSCLKSource
                0x0000000000000000       0x10 CMakeFiles/bootloader.dir/__/__/__/__/__/thirdparty/STM32F2xx_StdPeriph_Lib_V1.1.0/Libraries/STM32F2xx_StdPeriph_Driver/src/stm32f2xx_rcc.c.o
 .text.RCC_HCLKConfig
                0x0000000000000000       0x14 CMakeFiles/bootloader.dir/__/__/__/__/__/thirdparty/STM32F2xx_StdPeriph_Lib_V1.1.0/Libraries/STM32F2xx_StdPeriph_Driver/src/stm32f2xx_rcc.c.o
 .text.RCC_PCLK1Config
                0x0000000000000000       0x14 CMakeFiles/bootloader.dir/__/__/__/__/__/thirdparty/STM32F2xx_StdPeriph_Lib_V1.1.0/Libraries/STM32F2xx_StdPeriph_Driver/src/stm32f2xx_rcc.c.o
 .text.RCC_PCLK2Config
                0x0000000000000000       0x14 CMakeFiles/bootloader.dir/__/__/__/__/__/thirdparty/STM32F2xx_StdPeriph_Lib_V1.1.0/Libraries/STM32F2xx_StdPeriph_Driver/src/stm32f2xx_rcc.c.o
 .text.RCC_RTCCLKConfig
                0x0000000000000000       0x30 CMakeFiles/bootloader.dir/__/__/__/__/__/thirdparty/STM32F2xx_StdPeriph_Lib_V1.1.0/Libraries/STM32F2xx_StdPeriph_Driver/src/stm32f2xx_rcc.c.o
 .text.RCC_RTCCLKCmd
                0x0000000000000000        0xc CMakeFiles/bootloader.dir/__/__/__/__/__/thirdparty/STM32F2xx_StdPeriph_Lib_V1.1.0/Libraries/STM32F2xx_StdPeriph_Driver/src/stm32f2xx_rcc.c.o
 .text.RCC_BackupResetCmd
                0x0000000000000000        0xc CMakeFiles/bootloader.dir/__/__/__/__/__/thirdparty/STM32F2xx_StdPeriph_Lib_V1.1.0/Libraries/STM32F2xx_StdPeriph_Driver/src/stm32f2xx_rcc.c.o
 .text.RCC_I2SCLKConfig
                0x0000000000000000        0xc CMakeFiles/bootloader.dir/__/__/__/__/__/thirdparty/STM32F2xx_StdPeriph_Lib_V1.1.0/Libraries/STM32F2xx_StdPeriph_Driver/src/stm32f2xx_rcc.c.o
 .text.RCC_AHB3PeriphClockCmd
                0x0000000000000000       0x18 CMakeFiles/bootloader.dir/__/__/__/__/__/thirdparty/STM32F2xx_StdPeriph_Lib_V1.1.0/Libraries/STM32F2xx_StdPeriph_Driver/src/stm32f2xx_rcc.c.o
 .text.RCC_AHB1PeriphResetCmd
                0x0000000000000000       0x18 CMakeFiles/bootloader.dir/__/__/__/__/__/thirdparty/STM32F2xx_StdPeriph_Lib_V1.1.0/Libraries/STM32F2xx_StdPeriph_Driver/src/stm32f2xx_rcc.c.o
 .text.RCC_AHB2PeriphResetCmd
                0x0000000000000000       0x18 CMakeFiles/bootloader.dir/__/__/__/__/__/thirdparty/STM32F2xx_StdPeriph_Lib_V1.1.0/Libraries/STM32F2xx_StdPeriph_Driver/src/stm32f2xx_rcc.c.o
 .text.RCC_AHB3PeriphResetCmd
                0x0000000000000000       0x18 CMakeFiles/bootloader.dir/__/__/__/__/__/thirdparty/STM32F2xx_StdPeriph_Lib_V1.1.0/Libraries/STM32F2xx_StdPeriph_Driver/src/stm32f2xx_rcc.c.o
 .text.RCC_AHB1PeriphClockLPModeCmd
                0x0000000000000000       0x18 CMakeFiles/bootloader.dir/__/__/__/__/__/thirdparty/STM32F2xx_StdPeriph_Lib_V1.1.0/Libraries/STM32F2xx_StdPeriph_Driver/src/stm32f2xx_rcc.c.o
 .text.RCC_AHB2PeriphClockLPModeCmd
                0x0000000000000000       0x18 CMakeFiles/bootloader.dir/__/__/__/__/__/thirdparty/STM32F2xx_StdPeriph_Lib_V1.1.0/Libraries/STM32F2xx_StdPeriph_Driver/src/stm32f2xx_rcc.c.o
 .text.RCC_AHB3PeriphClockLPModeCmd
                0x0000000000000000       0x18 CMakeFiles/bootloader.dir/__/__/__/__/__/thirdparty/STM32F2xx_StdPeriph_Lib_V1.1.0/Libraries/STM32F2xx_StdPeriph_Driver/src/stm32f2xx_rcc.c.o
 .text.RCC_APB1PeriphClockLPModeCmd
                0x0000000000000000       0x18 CMakeFiles/bootloader.dir/__/__/__/__/__/thirdparty/STM32F2xx_StdPeriph_Lib_V1.1.0/Libraries/STM32F2xx_StdPeriph_Driver/src/stm32f2xx_rcc.c.o
 .text.RCC_APB2PeriphClockLPModeCmd
                0x0000000000000000       0x18 CMakeFiles/bootloader.dir/__/__/__/__/__/thirdparty/STM32F2xx_StdPeriph_Lib_V1.1.0/Libraries/STM32F2xx_StdPeriph_Driver/src/stm32f2xx_rcc.c.o
 .text.RCC_ITConfig
                0x0000000000000000       0x18 CMakeFiles/bootloader.dir/__/__/__/__/__/thirdparty/STM32F2xx_StdPeriph_Lib_V1.1.0/Libraries/STM32F2xx_StdPeriph_Driver/src/stm32f2xx_rcc.c.o
 .text.RCC_GetFlagStatus
                0x0000000000000000       0x28 CMakeFiles/bootloader.dir/__/__/__/__/__/thirdparty/STM32F2xx_StdPeriph_Lib_V1.1.0/Libraries/STM32F2xx_StdPeriph_Driver/src/stm32f2xx_rcc.c.o
 .text.RCC_WaitForHSEStartUp
                0x0000000000000000       0x30 CMakeFiles/bootloader.dir/__/__/__/__/__/thirdparty/STM32F2xx_StdPeriph_Lib_V1.1.0/Libraries/STM32F2xx_StdPeriph_Driver/src/stm32f2xx_rcc.c.o
 .text.RCC_ClearFlag
                0x0000000000000000       0x10 CMakeFiles/bootloader.dir/__/__/__/__/__/thirdparty/STM32F2xx_StdPeriph_Lib_V1.1.0/Libraries/STM32F2xx_StdPeriph_Driver/src/stm32f2xx_rcc.c.o
 .text.RCC_GetITStatus
                0x0000000000000000       0x14 CMakeFiles/bootloader.dir/__/__/__/__/__/thirdparty/STM32F2xx_StdPeriph_Lib_V1.1.0/Libraries/STM32F2xx_StdPeriph_Driver/src/stm32f2xx_rcc.c.o
 .text.RCC_ClearITPendingBit
                0x0000000000000000        0xc CMakeFiles/bootloader.dir/__/__/__/__/__/thirdparty/STM32F2xx_StdPeriph_Lib_V1.1.0/Libraries/STM32F2xx_StdPeriph_Driver/src/stm32f2xx_rcc.c.o
 .text          0x0000000000000000        0x0 CMakeFiles/bootloader.dir/__/__/__/__/__/thirdparty/STM32F2xx_StdPeriph_Lib_V1.1.0/Libraries/STM32F2xx_StdPeriph_Driver/src/stm32f2xx_syscfg.c.o
 .data          0x0000000000000000        0x0 CMakeFiles/bootloader.dir/__/__/__/__/__/thirdparty/STM32F2xx_StdPeriph_Lib_V1.1.0/Libraries/STM32F2xx_StdPeriph_Driver/src/stm32f2xx_syscfg.c.o
 .bss           0x0000000000000000        0x0 CMakeFiles/bootloader.dir/__/__/__/__/__/thirdparty/STM32F2xx_StdPeriph_Lib_V1.1.0/Libraries/STM32F2xx_StdPeriph_Driver/src/stm32f2xx_syscfg.c.o
 .text.SYSCFG_DeInit
                0x0000000000000000       0x1a CMakeFiles/bootloader.dir/__/__/__/__/__/thirdparty/STM32F2xx_StdPeriph_Lib_V1.1.0/Libraries/STM32F2xx_StdPeriph_Driver/src/stm32f2xx_syscfg.c.o
 .text.SYSCFG_MemoryRemapConfig
                0x0000000000000000        0xc CMakeFiles/bootloader.dir/__/__/__/__/__/thirdparty/STM32F2xx_StdPeriph_Lib_V1.1.0/Libraries/STM32F2xx_StdPeriph_Driver/src/stm32f2xx_syscfg.c.o
 .text.SYSCFG_ETH_MediaInterfaceConfig
                0x0000000000000000        0xc CMakeFiles/bootloader.dir/__/__/__/__/__/thirdparty/STM32F2xx_StdPeriph_Lib_V1.1.0/Libraries/STM32F2xx_StdPeriph_Driver/src/stm32f2xx_syscfg.c.o
 .text.SYSCFG_CompensationCellCmd
                0x0000000000000000        0xc CMakeFiles/bootloader.dir/__/__/__/__/__/thirdparty/STM32F2xx_StdPeriph_Lib_V1.1.0/Libraries/STM32F2xx_StdPeriph_Driver/src/stm32f2xx_syscfg.c.o
 .text.SYSCFG_GetCompensationCellStatus
                0x0000000000000000       0x10 CMakeFiles/bootloader.dir/__/__/__/__/__/thirdparty/STM32F2xx_StdPeriph_Lib_V1.1.0/Libraries/STM32F2xx_StdPeriph_Driver/src/stm32f2xx_syscfg.c.o
 .text          0x0000000000000000        0x0 CMakeFiles/bootloader.dir/__/__/__/__/__/thirdparty/STM32F2xx_StdPeriph_Lib_V1.1.0/Libraries/STM32F2xx_StdPeriph_Driver/src/stm32f2xx_gpio.c.o
 .data          0x0000000000000000        0x0 CMakeFiles/bootloader.dir/__/__/__/__/__/thirdparty/STM32F2xx_StdPeriph_Lib_V1.1.0/Libraries/STM32F2xx_StdPeriph_Driver/src/stm32f2xx_gpio.c.o
 .bss           0x0000000000000000        0x0 CMakeFiles/bootloader.dir/__/__/__/__/__/thirdparty/STM32F2xx_StdPeriph_Lib_V1.1.0/Libraries/STM32F2xx_StdPeriph_Driver/src/stm32f2xx_gpio.c.o
 .text.GPIO_DeInit
                0x0000000000000000       0xe8 CMakeFiles/bootloader.dir/__/__/__/__/__/thirdparty/STM32F2xx_StdPeriph_Lib_V1.1.0/Libraries/STM32F2xx_StdPeriph_Driver/src/stm32f2xx_gpio.c.o
 .text.GPIO_StructInit
                0x0000000000000000        0xc CMakeFiles/bootloader.dir/__/__/__/__/__/thirdparty/STM32F2xx_StdPeriph_Lib_V1.1.0/Libraries/STM32F2xx_StdPeriph_Driver/src/stm32f2xx_gpio.c.o
 .text.GPIO_PinLockConfig
                0x0000000000000000       0x24 CMakeFiles/bootloader.dir/__/__/__/__/__/thirdparty/STM32F2xx_StdPeriph_Lib_V1.1.0/Libraries/STM32F2xx_StdPeriph_Driver/src/stm32f2xx_gpio.c.o
 .text.GPIO_ReadInputData
                0x0000000000000000        0x6 CMakeFiles/bootloader.dir/__/__/__/__/__/thirdparty/STM32F2xx_StdPeriph_Lib_V1.1.0/Libraries/STM32F2xx_StdPeriph_Driver/src/stm32f2xx_gpio.c.o
 .text.GPIO_ReadOutputDataBit
                0x0000000000000000        0xc CMakeFiles/bootloader.dir/__/__/__/__/__/thirdparty/STM32F2xx_StdPeriph_Lib_V1.1.0/Libraries/STM32F2xx_StdPeriph_Driver/src/stm32f2xx_gpio.c.o
 .text.GPIO_ReadOutputData
                0x0000000000000000        0x6 CMakeFiles/bootloader.dir/__/__/__/__/__/thirdparty/STM32F2xx_StdPeriph_Lib_V1.1.0/Libraries/STM32F2xx_StdPeriph_Driver/src/stm32f2xx_gpio.c.o
 .text.GPIO_WriteBit
                0x0000000000000000        0xa CMakeFiles/bootloader.dir/__/__/__/__/__/thirdparty/STM32F2xx_StdPeriph_Lib_V1.1.0/Libraries/STM32F2xx_StdPeriph_Driver/src/stm32f2xx_gpio.c.o
 .text.GPIO_Write
                0x0000000000000000        0x4 CMakeFiles/bootloader.dir/__/__/__/__/__/thirdparty/STM32F2xx_StdPeriph_Lib_V1.1.0/Libraries/STM32F2xx_StdPeriph_Driver/src/stm32f2xx_gpio.c.o
 .text.GPIO_ToggleBits
                0x0000000000000000        0x8 CMakeFiles/bootloader.dir/__/__/__/__/__/thirdparty/STM32F2xx_StdPeriph_Lib_V1.1.0/Libraries/STM32F2xx_StdPeriph_Driver/src/stm32f2xx_gpio.c.o
 .text          0x0000000000000000        0x0 CMakeFiles/bootloader.dir/__/__/__/__/__/thirdparty/STM32F2xx_StdPeriph_Lib_V1.1.0/Libraries/STM32F2xx_StdPeriph_Driver/src/stm32f2xx_exti.c.o
 .data          0x0000000000000000        0x0 CMakeFiles/bootloader.dir/__/__/__/__/__/thirdparty/STM32F2xx_StdPeriph_Lib_V1.1.0/Libraries/STM32F2xx_StdPeriph_Driver/src/stm32f2xx_exti.c.o
 .bss           0x0000000000000000        0x0 CMakeFiles/bootloader.dir/__/__/__/__/__/thirdparty/STM32F2xx_StdPeriph_Lib_V1.1.0/Libraries/STM32F2xx_StdPeriph_Driver/src/stm32f2xx_exti.c.o
 .text.EXTI_DeInit
                0x0000000000000000       0x1c CMakeFiles/bootloader.dir/__/__/__/__/__/thirdparty/STM32F2xx_StdPeriph_Lib_V1.1.0/Libraries/STM32F2xx_StdPeriph_Driver/src/stm32f2xx_exti.c.o
 .text.EXTI_GenerateSWInterrupt
                0x0000000000000000       0x10 CMakeFiles/bootloader.dir/__/__/__/__/__/thirdparty/STM32F2xx_StdPeriph_Lib_V1.1.0/Libraries/STM32F2xx_StdPeriph_Driver/src/stm32f2xx_exti.c.o
 .text.EXTI_GetFlagStatus
                0x0000000000000000       0x14 CMakeFiles/bootloader.dir/__/__/__/__/__/thirdparty/STM32F2xx_StdPeriph_Lib_V1.1.0/Libraries/STM32F2xx_StdPeriph_Driver/src/stm32f2xx_exti.c.o
 .text.EXTI_ClearFlag
                0x0000000000000000        0xc CMakeFiles/bootloader.dir/__/__/__/__/__/thirdparty/STM32F2xx_StdPeriph_Lib_V1.1.0/Libraries/STM32F2xx_StdPeriph_Driver/src/stm32f2xx_exti.c.o
 .text          0x0000000000000000        0x0 CMakeFiles/bootloader.dir/__/__/__/__/__/thirdparty/STM32F2xx_StdPeriph_Lib_V1.1.0/Libraries/STM32F2xx_StdPeriph_Driver/src/stm32f2xx_spi.c.o
 .data          0x0000000000000000        0x0 CMakeFiles/bootloader.dir/__/__/__/__/__/thirdparty/STM32F2xx_StdPeriph_Lib_V1.1.0/Libraries/STM32F2xx_StdPeriph_Driver/src/stm32f2xx_spi.c.o
 .bss           0x0000000000000000        0x0 CMakeFiles/bootloader.dir/__/__/__/__/__/thirdparty/STM32F2xx_StdPeriph_Lib_V1.1.0/Libraries/STM32F2xx_StdPeriph_Driver/src/stm32f2xx_spi.c.o
 .text.I2S_Init
                0x0000000000000000       0xcc CMakeFiles/bootloader.dir/__/__/__/__/__/thirdparty/STM32F2xx_StdPeriph_Lib_V1.1.0/Libraries/STM32F2xx_StdPeriph_Driver/src/stm32f2xx_spi.c.o
 .text.SPI_StructInit
                0x0000000000000000       0x18 CMakeFiles/bootloader.dir/__/__/__/__/__/thirdparty/STM32F2xx_StdPeriph_Lib_V1.1.0/Libraries/STM32F2xx_StdPeriph_Driver/src/stm32f2xx_spi.c.o
 .text.I2S_StructInit
                0x0000000000000000        0xe CMakeFiles/bootloader.dir/__/__/__/__/__/thirdparty/STM32F2xx_StdPeriph_Lib_V1.1.0/Libraries/STM32F2xx_StdPeriph_Driver/src/stm32f2xx_spi.c.o
 .text.I2S_Cmd  0x0000000000000000       0x18 CMakeFiles/bootloader.dir/__/__/__/__/__/thirdparty/STM32F2xx_StdPeriph_Lib_V1.1.0/Libraries/STM32F2xx_StdPeriph_Driver/src/stm32f2xx_spi.c.o
 .text.SPI_DataSizeConfig
                0x0000000000000000       0x16 CMakeFiles/bootloader.dir/__/__/__/__/__/thirdparty/STM32F2xx_StdPeriph_Lib_V1.1.0/Libraries/STM32F2xx_StdPeriph_Driver/src/stm32f2xx_spi.c.o
 .text.SPI_BiDirectionalLineConfig
                0x0000000000000000       0x1c CMakeFiles/bootloader.dir/__/__/__/__/__/thirdparty/STM32F2xx_StdPeriph_Lib_V1.1.0/Libraries/STM32F2xx_StdPeriph_Driver/src/stm32f2xx_spi.c.o
 .text.SPI_NSSInternalSoftwareConfig
                0x0000000000000000       0x1e CMakeFiles/bootloader.dir/__/__/__/__/__/thirdparty/STM32F2xx_StdPeriph_Lib_V1.1.0/Libraries/STM32F2xx_StdPeriph_Driver/src/stm32f2xx_spi.c.o
 .text.SPI_SSOutputCmd
                0x0000000000000000       0x18 CMakeFiles/bootloader.dir/__/__/__/__/__/thirdparty/STM32F2xx_StdPeriph_Lib_V1.1.0/Libraries/STM32F2xx_StdPeriph_Driver/src/stm32f2xx_spi.c.o
 .text.SPI_TIModeCmd
                0x0000000000000000       0x18 CMakeFiles/bootloader.dir/__/__/__/__/__/thirdparty/STM32F2xx_StdPeriph_Lib_V1.1.0/Libraries/STM32F2xx_StdPeriph_Driver/src/stm32f2xx_spi.c.o
 .text.SPI_TransmitCRC
                0x0000000000000000        0xc CMakeFiles/bootloader.dir/__/__/__/__/__/thirdparty/STM32F2xx_StdPeriph_Lib_V1.1.0/Libraries/STM32F2xx_StdPeriph_Driver/src/stm32f2xx_spi.c.o
 .text.SPI_GetCRC
                0x0000000000000000        0xc CMakeFiles/bootloader.dir/__/__/__/__/__/thirdparty/STM32F2xx_StdPeriph_Lib_V1.1.0/Libraries/STM32F2xx_StdPeriph_Driver/src/stm32f2xx_spi.c.o
 .text.SPI_GetCRCPolynomial
                0x0000000000000000        0x6 CMakeFiles/bootloader.dir/__/__/__/__/__/thirdparty/STM32F2xx_StdPeriph_Lib_V1.1.0/Libraries/STM32F2xx_StdPeriph_Driver/src/stm32f2xx_spi.c.o
 .text.SPI_I2S_DMACmd
                0x0000000000000000       0x12 CMakeFiles/bootloader.dir/__/__/__/__/__/thirdparty/STM32F2xx_StdPeriph_Lib_V1.1.0/Libraries/STM32F2xx_StdPeriph_Driver/src/stm32f2xx_spi.c.o
 .text.SPI_I2S_ITConfig
                0x0000000000000000       0x1a CMakeFiles/bootloader.dir/__/__/__/__/__/thirdparty/STM32F2xx_StdPeriph_Lib_V1.1.0/Libraries/STM32F2xx_StdPeriph_Driver/src/stm32f2xx_spi.c.o
 .text.SPI_I2S_ClearFlag
                0x0000000000000000        0x8 CMakeFiles/bootloader.dir/__/__/__/__/__/thirdparty/STM32F2xx_StdPeriph_Lib_V1.1.0/Libraries/STM32F2xx_StdPeriph_Driver/src/stm32f2xx_spi.c.o
 .text.SPI_I2S_GetITStatus
                0x0000000000000000       0x28 CMakeFiles/bootloader.dir/__/__/__/__/__/thirdparty/STM32F2xx_StdPeriph_Lib_V1.1.0/Libraries/STM32F2xx_StdPeriph_Driver/src/stm32f2xx_spi.c.o
 .text.SPI_I2S_ClearITPendingBit
                0x0000000000000000       0x10 CMakeFiles/bootloader.dir/__/__/__/__/__/thirdparty/STM32F2xx_StdPeriph_Lib_V1.1.0/Libraries/STM32F2xx_StdPeriph_Driver/src/stm32f2xx_spi.c.o
 .text          0x0000000000000000        0x0 CMakeFiles/bootloader.dir/__/__/__/__/__/thirdparty/STM32F2xx_StdPeriph_Lib_V1.1.0/Libraries/STM32F2xx_StdPeriph_Driver/src/stm32f2xx_i2c.c.o
 .data          0x0000000000000000        0x0 CMakeFiles/bootloader.dir/__/__/__/__/__/thirdparty/STM32F2xx_StdPeriph_Lib_V1.1.0/Libraries/STM32F2xx_StdPeriph_Driver/src/stm32f2xx_i2c.c.o
 .bss           0x0000000000000000        0x0 CMakeFiles/bootloader.dir/__/__/__/__/__/thirdparty/STM32F2xx_StdPeriph_Lib_V1.1.0/Libraries/STM32F2xx_StdPeriph_Driver/src/stm32f2xx_i2c.c.o
 .text.I2C_StructInit
                0x0000000000000000       0x1c CMakeFiles/bootloader.dir/__/__/__/__/__/thirdparty/STM32F2xx_StdPeriph_Lib_V1.1.0/Libraries/STM32F2xx_StdPeriph_Driver/src/stm32f2xx_i2c.c.o
 .text.I2C_OwnAddress2Config
                0x0000000000000000       0x12 CMakeFiles/bootloader.dir/__/__/__/__/__/thirdparty/STM32F2xx_StdPeriph_Lib_V1.1.0/Libraries/STM32F2xx_StdPeriph_Driver/src/stm32f2xx_i2c.c.o
 .text.I2C_DualAddressCmd
                0x0000000000000000       0x18 CMakeFiles/bootloader.dir/__/__/__/__/__/thirdparty/STM32F2xx_StdPeriph_Lib_V1.1.0/Libraries/STM32F2xx_StdPeriph_Driver/src/stm32f2xx_i2c.c.o
 .text.I2C_GeneralCallCmd
                0x0000000000000000       0x18 CMakeFiles/bootloader.dir/__/__/__/__/__/thirdparty/STM32F2xx_StdPeriph_Lib_V1.1.0/Libraries/STM32F2xx_StdPeriph_Driver/src/stm32f2xx_i2c.c.o
 .text.I2C_SoftwareResetCmd
                0x0000000000000000       0x18 CMakeFiles/bootloader.dir/__/__/__/__/__/thirdparty/STM32F2xx_StdPeriph_Lib_V1.1.0/Libraries/STM32F2xx_StdPeriph_Driver/src/stm32f2xx_i2c.c.o
 .text.I2C_StretchClockCmd
                0x0000000000000000       0x18 CMakeFiles/bootloader.dir/__/__/__/__/__/thirdparty/STM32F2xx_StdPeriph_Lib_V1.1.0/Libraries/STM32F2xx_StdPeriph_Driver/src/stm32f2xx_i2c.c.o
 .text.I2C_FastModeDutyCycleConfig
                0x0000000000000000       0x1c CMakeFiles/bootloader.dir/__/__/__/__/__/thirdparty/STM32F2xx_StdPeriph_Lib_V1.1.0/Libraries/STM32F2xx_StdPeriph_Driver/src/stm32f2xx_i2c.c.o
 .text.I2C_NACKPositionConfig
                0x0000000000000000       0x1c CMakeFiles/bootloader.dir/__/__/__/__/__/thirdparty/STM32F2xx_StdPeriph_Lib_V1.1.0/Libraries/STM32F2xx_StdPeriph_Driver/src/stm32f2xx_i2c.c.o
 .text.I2C_SMBusAlertConfig
                0x0000000000000000       0x1c CMakeFiles/bootloader.dir/__/__/__/__/__/thirdparty/STM32F2xx_StdPeriph_Lib_V1.1.0/Libraries/STM32F2xx_StdPeriph_Driver/src/stm32f2xx_i2c.c.o
 .text.I2C_ARPCmd
                0x0000000000000000       0x18 CMakeFiles/bootloader.dir/__/__/__/__/__/thirdparty/STM32F2xx_StdPeriph_Lib_V1.1.0/Libraries/STM32F2xx_StdPeriph_Driver/src/stm32f2xx_i2c.c.o
 .text.I2C_TransmitPEC
                0x0000000000000000       0x18 CMakeFiles/bootloader.dir/__/__/__/__/__/thirdparty/STM32F2xx_StdPeriph_Lib_V1.1.0/Libraries/STM32F2xx_StdPeriph_Driver/src/stm32f2xx_i2c.c.o
 .text.I2C_PECPositionConfig
                0x0000000000000000        0x4 CMakeFiles/bootloader.dir/__/__/__/__/__/thirdparty/STM32F2xx_StdPeriph_Lib_V1.1.0/Libraries/STM32F2xx_StdPeriph_Driver/src/stm32f2xx_i2c.c.o
 .text.I2C_CalculatePEC
                0x0000000000000000       0x18 CMakeFiles/bootloader.dir/__/__/__/__/__/thirdparty/STM32F2xx_StdPeriph_Lib_V1.1.0/Libraries/STM32F2xx_StdPeriph_Driver/src/stm32f2xx_i2c.c.o
 .text.I2C_GetPEC
                0x0000000000000000        0x8 CMakeFiles/bootloader.dir/__/__/__/__/__/thirdparty/STM32F2xx_StdPeriph_Lib_V1.1.0/Libraries/STM32F2xx_StdPeriph_Driver/src/stm32f2xx_i2c.c.o
 .text.I2C_DMACmd
                0x0000000000000000       0x18 CMakeFiles/bootloader.dir/__/__/__/__/__/thirdparty/STM32F2xx_StdPeriph_Lib_V1.1.0/Libraries/STM32F2xx_StdPeriph_Driver/src/stm32f2xx_i2c.c.o
 .text.I2C_DMALastTransferCmd
                0x0000000000000000       0x18 CMakeFiles/bootloader.dir/__/__/__/__/__/thirdparty/STM32F2xx_StdPeriph_Lib_V1.1.0/Libraries/STM32F2xx_StdPeriph_Driver/src/stm32f2xx_i2c.c.o
 .text.I2C_ReadRegister
                0x0000000000000000       0x18 CMakeFiles/bootloader.dir/__/__/__/__/__/thirdparty/STM32F2xx_StdPeriph_Lib_V1.1.0/Libraries/STM32F2xx_StdPeriph_Driver/src/stm32f2xx_i2c.c.o
 .text.I2C_ITConfig
                0x0000000000000000       0x12 CMakeFiles/bootloader.dir/__/__/__/__/__/thirdparty/STM32F2xx_StdPeriph_Lib_V1.1.0/Libraries/STM32F2xx_StdPeriph_Driver/src/stm32f2xx_i2c.c.o
 .text.I2C_GetLastEvent
                0x0000000000000000       0x10 CMakeFiles/bootloader.dir/__/__/__/__/__/thirdparty/STM32F2xx_StdPeriph_Lib_V1.1.0/Libraries/STM32F2xx_StdPeriph_Driver/src/stm32f2xx_i2c.c.o
 .text.I2C_GetFlagStatus
                0x0000000000000000       0x34 CMakeFiles/bootloader.dir/__/__/__/__/__/thirdparty/STM32F2xx_StdPeriph_Lib_V1.1.0/Libraries/STM32F2xx_StdPeriph_Driver/src/stm32f2xx_i2c.c.o
 .text.I2C_ClearFlag
                0x0000000000000000        0x8 CMakeFiles/bootloader.dir/__/__/__/__/__/thirdparty/STM32F2xx_StdPeriph_Lib_V1.1.0/Libraries/STM32F2xx_StdPeriph_Driver/src/stm32f2xx_i2c.c.o
 .text.I2C_GetITStatus
                0x0000000000000000       0x1c CMakeFiles/bootloader.dir/__/__/__/__/__/thirdparty/STM32F2xx_StdPeriph_Lib_V1.1.0/Libraries/STM32F2xx_StdPeriph_Driver/src/stm32f2xx_i2c.c.o
 .text.I2C_ClearITPendingBit
                0x0000000000000000        0x8 CMakeFiles/bootloader.dir/__/__/__/__/__/thirdparty/STM32F2xx_StdPeriph_Lib_V1.1.0/Libraries/STM32F2xx_StdPeriph_Driver/src/stm32f2xx_i2c.c.o
 .text          0x0000000000000000        0x0 CMakeFiles/bootloader.dir/__/__/__/__/__/thirdparty/STM32F2xx_StdPeriph_Lib_V1.1.0/Libraries/STM32F2xx_StdPeriph_Driver/src/misc.c.o
 .data          0x0000000000000000        0x0 CMakeFiles/bootloader.dir/__/__/__/__/__/thirdparty/STM32F2xx_StdPeriph_Lib_V1.1.0/Libraries/STM32F2xx_StdPeriph_Driver/src/misc.c.o
 .bss           0x0000000000000000        0x0 CMakeFiles/bootloader.dir/__/__/__/__/__/thirdparty/STM32F2xx_StdPeriph_Lib_V1.1.0/Libraries/STM32F2xx_StdPeriph_Driver/src/misc.c.o
 .text.NVIC_PriorityGroupConfig
                0x0000000000000000       0x14 CMakeFiles/bootloader.dir/__/__/__/__/__/thirdparty/STM32F2xx_StdPeriph_Lib_V1.1.0/Libraries/STM32F2xx_StdPeriph_Driver/src/misc.c.o
 .text.NVIC_SetVectorTable
                0x0000000000000000       0x14 CMakeFiles/bootloader.dir/__/__/__/__/__/thirdparty/STM32F2xx_StdPeriph_Lib_V1.1.0/Libraries/STM32F2xx_StdPeriph_Driver/src/misc.c.o
 .text.NVIC_SystemLPConfig
                0x0000000000000000       0x18 CMakeFiles/bootloader.dir/__/__/__/__/__/thirdparty/STM32F2xx_StdPeriph_Lib_V1.1.0/Libraries/STM32F2xx_StdPeriph_Driver/src/misc.c.o
 .text.SysTick_CLKSourceConfig
                0x0000000000000000       0x18 CMakeFiles/bootloader.dir/__/__/__/__/__/thirdparty/STM32F2xx_StdPeriph_Lib_V1.1.0/Libraries/STM32F2xx_StdPeriph_Driver/src/misc.c.o
 .text          0x0000000000000000        0x0 CMakeFiles/bootloader.dir/__/__/__/__/__/gui/128x64/fonts.cpp.o
 .data          0x0000000000000000        0x0 CMakeFiles/bootloader.dir/__/__/__/__/__/gui/128x64/fonts.cpp.o
 .bss           0x0000000000000000        0x0 CMakeFiles/bootloader.dir/__/__/__/__/__/gui/128x64/fonts.cpp.o
 .text          0x0000000000000000        0x0 CMakeFiles/bootloader.dir/__/__/__/__/__/keys.cpp.o
 .data          0x0000000000000000        0x0 CMakeFiles/bootloader.dir/__/__/__/__/__/keys.cpp.o
 .bss           0x0000000000000000        0x0 CMakeFiles/bootloader.dir/__/__/__/__/__/keys.cpp.o
 .text._ZN3Key11pauseEventsEv
                0x0000000000000000        0xa CMakeFiles/bootloader.dir/__/__/__/__/__/keys.cpp.o
 .text._ZN3Key10killEventsEv
                0x0000000000000000        0x6 CMakeFiles/bootloader.dir/__/__/__/__/__/keys.cpp.o
 .text._ZNK3Key3keyEv
                0x0000000000000000       0x14 CMakeFiles/bootloader.dir/__/__/__/__/__/keys.cpp.o
 .text._Z11pauseEventst
                0x0000000000000000       0x20 CMakeFiles/bootloader.dir/__/__/__/__/__/keys.cpp.o
 .text._Z10killEventst
                0x0000000000000000       0x1c CMakeFiles/bootloader.dir/__/__/__/__/__/keys.cpp.o
 .text._Z13killAllEventsv
                0x0000000000000000       0x18 CMakeFiles/bootloader.dir/__/__/__/__/__/keys.cpp.o
 .text._Z16waitKeysReleasedv
                0x0000000000000000       0x28 CMakeFiles/bootloader.dir/__/__/__/__/__/keys.cpp.o
 .text          0x0000000000000000        0x0 CMakeFiles/bootloader.dir/__/__/__/__/__/strhelpers.cpp.o
 .data          0x0000000000000000        0x0 CMakeFiles/bootloader.dir/__/__/__/__/__/strhelpers.cpp.o
 .bss           0x0000000000000000        0x0 CMakeFiles/bootloader.dir/__/__/__/__/__/strhelpers.cpp.o
 .text._Z17strAppendUnsignedPcmhh
                0x0000000000000000       0x46 CMakeFiles/bootloader.dir/__/__/__/__/__/strhelpers.cpp.o
 .text._Z15strAppendSignedPclhh
                0x0000000000000000       0x16 CMakeFiles/bootloader.dir/__/__/__/__/__/strhelpers.cpp.o
 .text._Z12strSetCursorPci
                0x0000000000000000        0xe CMakeFiles/bootloader.dir/__/__/__/__/__/strhelpers.cpp.o
 .text._Z17strAppendFilenamePcPKci
                0x0000000000000000       0x2c CMakeFiles/bootloader.dir/__/__/__/__/__/strhelpers.cpp.o
 .text._Z13strAppendDatePcb
                0x0000000000000000       0xe4 CMakeFiles/bootloader.dir/__/__/__/__/__/strhelpers.cpp.o
 .text          0x0000000000000000        0x0 CMakeFiles/bootloader.dir/__/__/__/__/__/stamp.cpp.o
 .data          0x0000000000000000        0x0 CMakeFiles/bootloader.dir/__/__/__/__/__/stamp.cpp.o
 .bss           0x0000000000000000        0x0 CMakeFiles/bootloader.dir/__/__/__/__/__/stamp.cpp.o
 .fwversiondata
                0x0000000000000000       0x1c CMakeFiles/bootloader.dir/__/__/__/__/__/stamp.cpp.o
 .rodata.vers_stamp
                0x0000000000000000       0x52 CMakeFiles/bootloader.dir/__/__/__/__/__/stamp.cpp.o
 .text          0x0000000000000000        0x0 CMakeFiles/bootloader.dir/__/__/__/__/__/thirdparty/STM32_USB-Host-Device_Lib_V2.2.0/Libraries/STM32_USB_OTG_Driver/src/usb_core.c.o
 .data          0x0000000000000000        0x0 CMakeFiles/bootloader.dir/__/__/__/__/__/thirdparty/STM32_USB-Host-Device_Lib_V2.2.0/Libraries/STM32_USB_OTG_Driver/src/usb_core.c.o
 .bss           0x0000000000000000        0x0 CMakeFiles/bootloader.dir/__/__/__/__/__/thirdparty/STM32_USB-Host-Device_Lib_V2.2.0/Libraries/STM32_USB_OTG_Driver/src/usb_core.c.o
 .text.USB_OTG_GetMode
                0x0000000000000000        0xa CMakeFiles/bootloader.dir/__/__/__/__/__/thirdparty/STM32_USB-Host-Device_Lib_V2.2.0/Libraries/STM32_USB_OTG_Driver/src/usb_core.c.o
 .text.USB_OTG_IsHostMode
                0x0000000000000000        0xa CMakeFiles/bootloader.dir/__/__/__/__/__/thirdparty/STM32_USB-Host-Device_Lib_V2.2.0/Libraries/STM32_USB_OTG_Driver/src/usb_core.c.o
 .text.USB_OTG_ReadOtgItr
                0x0000000000000000        0x6 CMakeFiles/bootloader.dir/__/__/__/__/__/thirdparty/STM32_USB-Host-Device_Lib_V2.2.0/Libraries/STM32_USB_OTG_Driver/src/usb_core.c.o
 .text.USB_OTG_ActiveRemoteWakeup
                0x0000000000000000       0x40 CMakeFiles/bootloader.dir/__/__/__/__/__/thirdparty/STM32_USB-Host-Device_Lib_V2.2.0/Libraries/STM32_USB_OTG_Driver/src/usb_core.c.o
 .text.USB_OTG_UngateClock
                0x0000000000000000       0x1e CMakeFiles/bootloader.dir/__/__/__/__/__/thirdparty/STM32_USB-Host-Device_Lib_V2.2.0/Libraries/STM32_USB_OTG_Driver/src/usb_core.c.o
 .text.USB_OTG_StopDevice
                0x0000000000000000       0x48 CMakeFiles/bootloader.dir/__/__/__/__/__/thirdparty/STM32_USB-Host-Device_Lib_V2.2.0/Libraries/STM32_USB_OTG_Driver/src/usb_core.c.o
 .text.USB_OTG_GetEPStatus
                0x0000000000000000       0x4a CMakeFiles/bootloader.dir/__/__/__/__/__/thirdparty/STM32_USB-Host-Device_Lib_V2.2.0/Libraries/STM32_USB_OTG_Driver/src/usb_core.c.o
 .text.USB_OTG_SetEPStatus
                0x0000000000000000       0x74 CMakeFiles/bootloader.dir/__/__/__/__/__/thirdparty/STM32_USB-Host-Device_Lib_V2.2.0/Libraries/STM32_USB_OTG_Driver/src/usb_core.c.o
 .text          0x0000000000000000        0x0 CMakeFiles/bootloader.dir/__/__/__/__/__/thirdparty/STM32_USB-Host-Device_Lib_V2.2.0/Libraries/STM32_USB_OTG_Driver/src/usb_dcd.c.o
 .data          0x0000000000000000        0x0 CMakeFiles/bootloader.dir/__/__/__/__/__/thirdparty/STM32_USB-Host-Device_Lib_V2.2.0/Libraries/STM32_USB_OTG_Driver/src/usb_dcd.c.o
 .bss           0x0000000000000000        0x0 CMakeFiles/bootloader.dir/__/__/__/__/__/thirdparty/STM32_USB-Host-Device_Lib_V2.2.0/Libraries/STM32_USB_OTG_Driver/src/usb_dcd.c.o
 .text.DCD_DevConnect
                0x0000000000000000       0x10 CMakeFiles/bootloader.dir/__/__/__/__/__/thirdparty/STM32_USB-Host-Device_Lib_V2.2.0/Libraries/STM32_USB_OTG_Driver/src/usb_dcd.c.o
 .text.DCD_DevDisconnect
                0x0000000000000000       0x10 CMakeFiles/bootloader.dir/__/__/__/__/__/thirdparty/STM32_USB-Host-Device_Lib_V2.2.0/Libraries/STM32_USB_OTG_Driver/src/usb_dcd.c.o
 .text.DCD_GetEPStatus
                0x0000000000000000       0x22 CMakeFiles/bootloader.dir/__/__/__/__/__/thirdparty/STM32_USB-Host-Device_Lib_V2.2.0/Libraries/STM32_USB_OTG_Driver/src/usb_dcd.c.o
 .text.DCD_SetEPStatus
                0x0000000000000000       0x22 CMakeFiles/bootloader.dir/__/__/__/__/__/thirdparty/STM32_USB-Host-Device_Lib_V2.2.0/Libraries/STM32_USB_OTG_Driver/src/usb_dcd.c.o
 .text          0x0000000000000000        0x0 CMakeFiles/bootloader.dir/__/__/__/__/__/thirdparty/STM32_USB-Host-Device_Lib_V2.2.0/Libraries/STM32_USB_OTG_Driver/src/usb_dcd_int.c.o
 .data          0x0000000000000000        0x0 CMakeFiles/bootloader.dir/__/__/__/__/__/thirdparty/STM32_USB-Host-Device_Lib_V2.2.0/Libraries/STM32_USB_OTG_Driver/src/usb_dcd_int.c.o
 .bss           0x0000000000000000        0x0 CMakeFiles/bootloader.dir/__/__/__/__/__/thirdparty/STM32_USB-Host-Device_Lib_V2.2.0/Libraries/STM32_USB_OTG_Driver/src/usb_dcd_int.c.o
 .text          0x0000000000000000        0x0 CMakeFiles/bootloader.dir/__/__/__/__/__/thirdparty/STM32_USB-Host-Device_Lib_V2.2.0/Libraries/STM32_USB_Device_Library/Core/src/usbd_core.c.o
 .data          0x0000000000000000        0x0 CMakeFiles/bootloader.dir/__/__/__/__/__/thirdparty/STM32_USB-Host-Device_Lib_V2.2.0/Libraries/STM32_USB_Device_Library/Core/src/usbd_core.c.o
 .bss           0x0000000000000000        0x0 CMakeFiles/bootloader.dir/__/__/__/__/__/thirdparty/STM32_USB-Host-Device_Lib_V2.2.0/Libraries/STM32_USB_Device_Library/Core/src/usbd_core.c.o
 .text          0x0000000000000000        0x0 CMakeFiles/bootloader.dir/__/__/__/__/__/thirdparty/STM32_USB-Host-Device_Lib_V2.2.0/Libraries/STM32_USB_Device_Library/Core/src/usbd_ioreq.c.o
 .data          0x0000000000000000        0x0 CMakeFiles/bootloader.dir/__/__/__/__/__/thirdparty/STM32_USB-Host-Device_Lib_V2.2.0/Libraries/STM32_USB_Device_Library/Core/src/usbd_ioreq.c.o
 .bss           0x0000000000000000        0x0 CMakeFiles/bootloader.dir/__/__/__/__/__/thirdparty/STM32_USB-Host-Device_Lib_V2.2.0/Libraries/STM32_USB_Device_Library/Core/src/usbd_ioreq.c.o
 .text.USBD_CtlPrepareRx
                0x0000000000000000       0x1a CMakeFiles/bootloader.dir/__/__/__/__/__/thirdparty/STM32_USB-Host-Device_Lib_V2.2.0/Libraries/STM32_USB_Device_Library/Core/src/usbd_ioreq.c.o
 .text          0x0000000000000000        0x0 CMakeFiles/bootloader.dir/__/__/__/__/__/thirdparty/STM32_USB-Host-Device_Lib_V2.2.0/Libraries/STM32_USB_Device_Library/Core/src/usbd_req.c.o
 .data          0x0000000000000000        0x0 CMakeFiles/bootloader.dir/__/__/__/__/__/thirdparty/STM32_USB-Host-Device_Lib_V2.2.0/Libraries/STM32_USB_Device_Library/Core/src/usbd_req.c.o
 .bss           0x0000000000000000        0x0 CMakeFiles/bootloader.dir/__/__/__/__/__/thirdparty/STM32_USB-Host-Device_Lib_V2.2.0/Libraries/STM32_USB_Device_Library/Core/src/usbd_req.c.o
 .text          0x0000000000000000        0x0 CMakeFiles/bootloader.dir/__/__/__/__/__/thirdparty/STM32_USB-Host-Device_Lib_V2.2.0/Libraries/STM32_USB_Device_Library/Class/msc/src/usbd_msc_data.c.o
 .data          0x0000000000000000        0x0 CMakeFiles/bootloader.dir/__/__/__/__/__/thirdparty/STM32_USB-Host-Device_Lib_V2.2.0/Libraries/STM32_USB_Device_Library/Class/msc/src/usbd_msc_data.c.o
 .bss           0x0000000000000000        0x0 CMakeFiles/bootloader.dir/__/__/__/__/__/thirdparty/STM32_USB-Host-Device_Lib_V2.2.0/Libraries/STM32_USB_Device_Library/Class/msc/src/usbd_msc_data.c.o
 .text          0x0000000000000000        0x0 CMakeFiles/bootloader.dir/__/__/__/__/__/thirdparty/STM32_USB-Host-Device_Lib_V2.2.0/Libraries/STM32_USB_Device_Library/Class/msc/src/usbd_msc_scsi.c.o
 .data          0x0000000000000000        0x0 CMakeFiles/bootloader.dir/__/__/__/__/__/thirdparty/STM32_USB-Host-Device_Lib_V2.2.0/Libraries/STM32_USB_Device_Library/Class/msc/src/usbd_msc_scsi.c.o
 .bss           0x0000000000000000        0x0 CMakeFiles/bootloader.dir/__/__/__/__/__/thirdparty/STM32_USB-Host-Device_Lib_V2.2.0/Libraries/STM32_USB_Device_Library/Class/msc/src/usbd_msc_scsi.c.o
 .text          0x0000000000000000        0x0 CMakeFiles/bootloader.dir/__/__/__/__/__/thirdparty/STM32_USB-Host-Device_Lib_V2.2.0/Libraries/STM32_USB_Device_Library/Class/msc/src/usbd_msc_bot.c.o
 .data          0x0000000000000000        0x0 CMakeFiles/bootloader.dir/__/__/__/__/__/thirdparty/STM32_USB-Host-Device_Lib_V2.2.0/Libraries/STM32_USB_Device_Library/Class/msc/src/usbd_msc_bot.c.o
 .bss           0x0000000000000000        0x0 CMakeFiles/bootloader.dir/__/__/__/__/__/thirdparty/STM32_USB-Host-Device_Lib_V2.2.0/Libraries/STM32_USB_Device_Library/Class/msc/src/usbd_msc_bot.c.o
 .text          0x0000000000000000        0x0 CMakeFiles/bootloader.dir/__/__/__/__/__/thirdparty/STM32_USB-Host-Device_Lib_V2.2.0/Libraries/STM32_USB_Device_Library/Class/msc/src/usbd_msc_core.c.o
 .data          0x0000000000000000        0x0 CMakeFiles/bootloader.dir/__/__/__/__/__/thirdparty/STM32_USB-Host-Device_Lib_V2.2.0/Libraries/STM32_USB_Device_Library/Class/msc/src/usbd_msc_core.c.o
 .bss           0x0000000000000000        0x0 CMakeFiles/bootloader.dir/__/__/__/__/__/thirdparty/STM32_USB-Host-Device_Lib_V2.2.0/Libraries/STM32_USB_Device_Library/Class/msc/src/usbd_msc_core.c.o
 .text          0x0000000000000000        0x0 CMakeFiles/bootloader.dir/__/__/__/__/__/thirdparty/FatFs/ff.c.o
 .data          0x0000000000000000        0x0 CMakeFiles/bootloader.dir/__/__/__/__/__/thirdparty/FatFs/ff.c.o
 .bss           0x0000000000000000        0x0 CMakeFiles/bootloader.dir/__/__/__/__/__/thirdparty/FatFs/ff.c.o
 .text.f_getcwd
                0x0000000000000000      0x11a CMakeFiles/bootloader.dir/__/__/__/__/__/thirdparty/FatFs/ff.c.o
 .text.f_closedir
                0x0000000000000000       0x12 CMakeFiles/bootloader.dir/__/__/__/__/__/thirdparty/FatFs/ff.c.o
 .text          0x0000000000000000        0x0 CMakeFiles/bootloader.dir/__/__/__/__/__/thirdparty/FatFs/option/ccsbcs.c.o
 .data          0x0000000000000000        0x0 CMakeFiles/bootloader.dir/__/__/__/__/__/thirdparty/FatFs/option/ccsbcs.c.o
 .bss           0x0000000000000000        0x0 CMakeFiles/bootloader.dir/__/__/__/__/__/thirdparty/FatFs/option/ccsbcs.c.o
 .text          0x0000000000000000        0x0 CMakeFiles/bootloader.dir/__/__/__/__/taranis/lcd_driver_spi.cpp.o
 .data          0x0000000000000000        0x0 CMakeFiles/bootloader.dir/__/__/__/__/taranis/lcd_driver_spi.cpp.o
 .bss           0x0000000000000000        0x0 CMakeFiles/bootloader.dir/__/__/__/__/taranis/lcd_driver_spi.cpp.o
 .text          0x0000000000000000        0x0 CMakeFiles/bootloader.dir/__/__/__/__/taranis/backlight_driver.cpp.o
 .data          0x0000000000000000        0x0 CMakeFiles/bootloader.dir/__/__/__/__/taranis/backlight_driver.cpp.o
 .bss           0x0000000000000000        0x0 CMakeFiles/bootloader.dir/__/__/__/__/taranis/backlight_driver.cpp.o
 .text.isBacklightEnabled
                0x0000000000000000       0x10 CMakeFiles/bootloader.dir/__/__/__/__/taranis/backlight_driver.cpp.o
 .text          0x0000000000000000        0x0 CMakeFiles/bootloader.dir/__/__/__/__/taranis/keys_driver.cpp.o
 .data          0x0000000000000000        0x0 CMakeFiles/bootloader.dir/__/__/__/__/taranis/keys_driver.cpp.o
 .bss           0x0000000000000000        0x0 CMakeFiles/bootloader.dir/__/__/__/__/taranis/keys_driver.cpp.o
 .text._Z8trimDownh
                0x0000000000000000       0x16 CMakeFiles/bootloader.dir/__/__/__/__/taranis/keys_driver.cpp.o
 .text._Z7keyDownv
                0x0000000000000000       0x18 CMakeFiles/bootloader.dir/__/__/__/__/taranis/keys_driver.cpp.o
 .text._Z16readKeysAndTrimsv
                0x0000000000000000       0x8c CMakeFiles/bootloader.dir/__/__/__/__/taranis/keys_driver.cpp.o
 .text          0x0000000000000000        0x0 CMakeFiles/bootloader.dir/__/__/__/__/taranis/diskio.cpp.o
 .data          0x0000000000000000        0x0 CMakeFiles/bootloader.dir/__/__/__/__/taranis/diskio.cpp.o
 .bss           0x0000000000000000        0x0 CMakeFiles/bootloader.dir/__/__/__/__/taranis/diskio.cpp.o
 .text._Z9sdMountedv
                0x0000000000000000       0x10 CMakeFiles/bootloader.dir/__/__/__/__/taranis/diskio.cpp.o
 .text._Z6sdIsHCv
                0x0000000000000000       0x10 CMakeFiles/bootloader.dir/__/__/__/__/taranis/diskio.cpp.o
 .text._Z10sdGetSpeedv
                0x0000000000000000        0x8 CMakeFiles/bootloader.dir/__/__/__/__/taranis/diskio.cpp.o
 .text          0x0000000000000000        0x0 CMakeFiles/bootloader.dir/__/__/__/__/taranis/board.cpp.o
 .data          0x0000000000000000        0x0 CMakeFiles/bootloader.dir/__/__/__/__/taranis/board.cpp.o
 .bss           0x0000000000000000        0x0 CMakeFiles/bootloader.dir/__/__/__/__/taranis/board.cpp.o
 .text._Z12watchdogInitj
                0x0000000000000000       0x24 CMakeFiles/bootloader.dir/__/__/__/__/taranis/board.cpp.o
 .text._Z15sportUpdateInitv
                0x0000000000000000       0x20 CMakeFiles/bootloader.dir/__/__/__/__/taranis/board.cpp.o
 .text._Z18sportUpdatePowerOnv
                0x0000000000000000        0xc CMakeFiles/bootloader.dir/__/__/__/__/taranis/board.cpp.o
 .text._Z19sportUpdatePowerOffv
                0x0000000000000000        0xc CMakeFiles/bootloader.dir/__/__/__/__/taranis/board.cpp.o
 .text._Z20sportUpdatePowerInitv
                0x0000000000000000       0x18 CMakeFiles/bootloader.dir/__/__/__/__/taranis/board.cpp.o
 .text._Z9boardInitv
                0x0000000000000000       0x9c CMakeFiles/bootloader.dir/__/__/__/__/taranis/board.cpp.o
 .text._Z17getBatteryVoltagev
                0x0000000000000000       0x28 CMakeFiles/bootloader.dir/__/__/__/__/taranis/board.cpp.o
 .text          0x0000000000000000        0x0 CMakeFiles/bootloader.dir/__/pwr_driver.cpp.o
 .data          0x0000000000000000        0x0 CMakeFiles/bootloader.dir/__/pwr_driver.cpp.o
 .bss           0x0000000000000000        0x0 CMakeFiles/bootloader.dir/__/pwr_driver.cpp.o
 .text          0x0000000000000000        0x0 CMakeFiles/bootloader.dir/__/__/__/__/taranis/bootloader/boot_menu.cpp.o
 .data          0x0000000000000000        0x0 CMakeFiles/bootloader.dir/__/__/__/__/taranis/bootloader/boot_menu.cpp.o
 .bss           0x0000000000000000        0x0 CMakeFiles/bootloader.dir/__/__/__/__/taranis/bootloader/boot_menu.cpp.o
 .text          0x0000000000000000        0x0 CMakeFiles/bootloader.dir/__/usbd_usr.cpp.o
 .data          0x0000000000000000        0x0 CMakeFiles/bootloader.dir/__/usbd_usr.cpp.o
 .bss           0x0000000000000000        0x0 CMakeFiles/bootloader.dir/__/usbd_usr.cpp.o
 .text          0x0000000000000000        0x0 CMakeFiles/bootloader.dir/__/usbd_storage_msd.cpp.o
 .data          0x0000000000000000        0x0 CMakeFiles/bootloader.dir/__/usbd_storage_msd.cpp.o
 .bss           0x0000000000000000        0x0 CMakeFiles/bootloader.dir/__/usbd_storage_msd.cpp.o
 .text          0x0000000000000000        0x0 CMakeFiles/bootloader.dir/__/delays.cpp.o
 .data          0x0000000000000000        0x0 CMakeFiles/bootloader.dir/__/delays.cpp.o
 .bss           0x0000000000000000        0x0 CMakeFiles/bootloader.dir/__/delays.cpp.o
 .text.delay_01us
                0x0000000000000000       0x24 CMakeFiles/bootloader.dir/__/delays.cpp.o
 .text          0x0000000000000000        0x0 CMakeFiles/bootloader.dir/__/usbd_desc.c.o
 .data          0x0000000000000000        0x0 CMakeFiles/bootloader.dir/__/usbd_desc.c.o
 .bss           0x0000000000000000        0x0 CMakeFiles/bootloader.dir/__/usbd_desc.c.o
 .rodata.USBD_DeviceQualifierDesc
                0x0000000000000000        0xa CMakeFiles/bootloader.dir/__/usbd_desc.c.o
 .rodata.USBD_LangIDDesc
                0x0000000000000000        0x4 CMakeFiles/bootloader.dir/__/usbd_desc.c.o
 .text          0x0000000000000000        0x0 CMakeFiles/bootloader.dir/__/usb_bsp.c.o
 .data          0x0000000000000000        0x0 CMakeFiles/bootloader.dir/__/usb_bsp.c.o
 .bss           0x0000000000000000        0x0 CMakeFiles/bootloader.dir/__/usb_bsp.c.o
 .text          0x0000000000000000        0x0 CMakeFiles/bootloader.dir/__/usb_driver.cpp.o
 .data          0x0000000000000000        0x0 CMakeFiles/bootloader.dir/__/usb_driver.cpp.o
 .bss           0x0000000000000000        0x0 CMakeFiles/bootloader.dir/__/usb_driver.cpp.o
 .text.setSelectedUsbMode
                0x0000000000000000       0x18 CMakeFiles/bootloader.dir/__/usb_driver.cpp.o
 .text.usbStarted
                0x0000000000000000        0xc CMakeFiles/bootloader.dir/__/usb_driver.cpp.o
 .text          0x0000000000000000        0x0 CMakeFiles/bootloader.dir/__/flash_driver.cpp.o
 .data          0x0000000000000000        0x0 CMakeFiles/bootloader.dir/__/flash_driver.cpp.o
 .bss           0x0000000000000000        0x0 CMakeFiles/bootloader.dir/__/flash_driver.cpp.o
 .text._Z17isBootloaderStartPKh
                0x0000000000000000       0x20 CMakeFiles/bootloader.dir/__/flash_driver.cpp.o
 .text          0x0000000000000000        0x0 CMakeFiles/bootloader.dir/init.c.o
 .data          0x0000000000000000        0x0 CMakeFiles/bootloader.dir/init.c.o
 .bss           0x0000000000000000        0x0 CMakeFiles/bootloader.dir/init.c.o
 .text          0x0000000000000000        0x0 CMakeFiles/bootloader.dir/boot.cpp.o
 .data          0x0000000000000000        0x0 CMakeFiles/bootloader.dir/boot.cpp.o
 .bss           0x0000000000000000        0x0 CMakeFiles/bootloader.dir/boot.cpp.o
 .text          0x0000000000000000        0x0 CMakeFiles/bootloader.dir/bin_files.cpp.o
 .data          0x0000000000000000        0x0 CMakeFiles/bootloader.dir/bin_files.cpp.o
 .bss           0x0000000000000000        0x0 CMakeFiles/bootloader.dir/bin_files.cpp.o
 .rodata._Z22extractFirmwareVersionP10VersionTag.str1.1
                0x0000000000000000        0x8 CMakeFiles/bootloader.dir/bin_files.cpp.o
 .text._Z22extractFirmwareVersionP10VersionTag
                0x0000000000000000       0x44 CMakeFiles/bootloader.dir/bin_files.cpp.o
 .text          0x0000000000000000        0x0 CMakeFiles/bootloader.dir/__/__/__/__/__/gui/common/stdlcd/lcd_1bit.cpp.o
 .data          0x0000000000000000        0x0 CMakeFiles/bootloader.dir/__/__/__/__/__/gui/common/stdlcd/lcd_1bit.cpp.o
 .bss           0x0000000000000000        0x0 CMakeFiles/bootloader.dir/__/__/__/__/__/gui/common/stdlcd/lcd_1bit.cpp.o
 .text._Z14getCharPatternP11PatternDatahm
                0x0000000000000000       0x18 CMakeFiles/bootloader.dir/__/__/__/__/__/gui/common/stdlcd/lcd_1bit.cpp.o
 .text._Z24lcdDrawSolidVerticalLineiiim
                0x0000000000000000       0x10 CMakeFiles/bootloader.dir/__/__/__/__/__/gui/common/stdlcd/lcd_1bit.cpp.o
 .text._Z11lcdDrawChariih
                0x0000000000000000        0x6 CMakeFiles/bootloader.dir/__/__/__/__/__/gui/common/stdlcd/lcd_1bit.cpp.o
 .text._Z16lcdDrawSizedTextiiPKch
                0x0000000000000000        0xe CMakeFiles/bootloader.dir/__/__/__/__/__/gui/common/stdlcd/lcd_1bit.cpp.o
 .text._Z19lcdDrawCenteredTextiPKcm
                0x0000000000000000       0x2c CMakeFiles/bootloader.dir/__/__/__/__/__/gui/common/stdlcd/lcd_1bit.cpp.o
 .bss.lcdLastLeftPos
                0x0000000000000000        0x4 CMakeFiles/bootloader.dir/__/__/__/__/__/gui/common/stdlcd/lcd_1bit.cpp.o
 .text          0x0000000000000000        0x0 CMakeFiles/bootloader.dir/__/rotary_encoder_driver.cpp.o
 .data          0x0000000000000000        0x0 CMakeFiles/bootloader.dir/__/rotary_encoder_driver.cpp.o
 .bss           0x0000000000000000        0x0 CMakeFiles/bootloader.dir/__/rotary_encoder_driver.cpp.o
 .text._Z23rotaryEncoderStartDelayv
                0x0000000000000000        0xc CMakeFiles/bootloader.dir/__/rotary_encoder_driver.cpp.o
 .text          0x0000000000000000        0x0 CMakeFiles/bootloader.dir/__/bluetooth_driver.cpp.o
 .data          0x0000000000000000        0x0 CMakeFiles/bootloader.dir/__/bluetooth_driver.cpp.o
 .bss           0x0000000000000000        0x0 CMakeFiles/bootloader.dir/__/bluetooth_driver.cpp.o
 .text          0x0000000000000000        0x0 CMakeFiles/bootloader.dir/__/__/__/__/taranis/i2c_driver.cpp.o
 .data          0x0000000000000000        0x0 CMakeFiles/bootloader.dir/__/__/__/__/taranis/i2c_driver.cpp.o
 .bss           0x0000000000000000        0x0 CMakeFiles/bootloader.dir/__/__/__/__/taranis/i2c_driver.cpp.o
 .text._Z24eepromIsTransferCompletev
                0x0000000000000000        0x4 CMakeFiles/bootloader.dir/__/__/__/__/taranis/i2c_driver.cpp.o
 .text          0x0000000000000000       0x38 /usr/lib/gcc/arm-none-eabi/9.2.1/../../../arm-none-eabi/lib/thumb/v7-m/nofp/libg_nano.a(lib_a-div.o)
 .data          0x0000000000000000        0x0 /usr/lib/gcc/arm-none-eabi/9.2.1/../../../arm-none-eabi/lib/thumb/v7-m/nofp/libg_nano.a(lib_a-div.o)
 .bss           0x0000000000000000        0x0 /usr/lib/gcc/arm-none-eabi/9.2.1/../../../arm-none-eabi/lib/thumb/v7-m/nofp/libg_nano.a(lib_a-div.o)
 .debug_info    0x0000000000000000      0x98b /usr/lib/gcc/arm-none-eabi/9.2.1/../../../arm-none-eabi/lib/thumb/v7-m/nofp/libg_nano.a(lib_a-div.o)
 .debug_abbrev  0x0000000000000000      0x1c9 /usr/lib/gcc/arm-none-eabi/9.2.1/../../../arm-none-eabi/lib/thumb/v7-m/nofp/libg_nano.a(lib_a-div.o)
 .debug_loc     0x0000000000000000       0xde /usr/lib/gcc/arm-none-eabi/9.2.1/../../../arm-none-eabi/lib/thumb/v7-m/nofp/libg_nano.a(lib_a-div.o)
 .debug_aranges
                0x0000000000000000       0x20 /usr/lib/gcc/arm-none-eabi/9.2.1/../../../arm-none-eabi/lib/thumb/v7-m/nofp/libg_nano.a(lib_a-div.o)
 .debug_line    0x0000000000000000      0x1c7 /usr/lib/gcc/arm-none-eabi/9.2.1/../../../arm-none-eabi/lib/thumb/v7-m/nofp/libg_nano.a(lib_a-div.o)
 .debug_str     0x0000000000000000      0x5e8 /usr/lib/gcc/arm-none-eabi/9.2.1/../../../arm-none-eabi/lib/thumb/v7-m/nofp/libg_nano.a(lib_a-div.o)
 .comment       0x0000000000000000       0x4f /usr/lib/gcc/arm-none-eabi/9.2.1/../../../arm-none-eabi/lib/thumb/v7-m/nofp/libg_nano.a(lib_a-div.o)
 .debug_frame   0x0000000000000000       0x38 /usr/lib/gcc/arm-none-eabi/9.2.1/../../../arm-none-eabi/lib/thumb/v7-m/nofp/libg_nano.a(lib_a-div.o)
 .ARM.attributes
                0x0000000000000000       0x2d /usr/lib/gcc/arm-none-eabi/9.2.1/../../../arm-none-eabi/lib/thumb/v7-m/nofp/libg_nano.a(lib_a-div.o)
 .data          0x0000000000000000        0x0 /usr/lib/gcc/arm-none-eabi/9.2.1/../../../arm-none-eabi/lib/thumb/v7-m/nofp/libg_nano.a(lib_a-init.o)
 .bss           0x0000000000000000        0x0 /usr/lib/gcc/arm-none-eabi/9.2.1/../../../arm-none-eabi/lib/thumb/v7-m/nofp/libg_nano.a(lib_a-init.o)
 .data          0x0000000000000000        0x0 /usr/lib/gcc/arm-none-eabi/9.2.1/../../../arm-none-eabi/lib/thumb/v7-m/nofp/libg_nano.a(lib_a-memcmp.o)
 .bss           0x0000000000000000        0x0 /usr/lib/gcc/arm-none-eabi/9.2.1/../../../arm-none-eabi/lib/thumb/v7-m/nofp/libg_nano.a(lib_a-memcmp.o)
 .data          0x0000000000000000        0x0 /usr/lib/gcc/arm-none-eabi/9.2.1/../../../arm-none-eabi/lib/thumb/v7-m/nofp/libg_nano.a(lib_a-memcpy.o)
 .bss           0x0000000000000000        0x0 /usr/lib/gcc/arm-none-eabi/9.2.1/../../../arm-none-eabi/lib/thumb/v7-m/nofp/libg_nano.a(lib_a-memcpy.o)
 .data          0x0000000000000000        0x0 /usr/lib/gcc/arm-none-eabi/9.2.1/../../../arm-none-eabi/lib/thumb/v7-m/nofp/libg_nano.a(lib_a-memset.o)
 .bss           0x0000000000000000        0x0 /usr/lib/gcc/arm-none-eabi/9.2.1/../../../arm-none-eabi/lib/thumb/v7-m/nofp/libg_nano.a(lib_a-memset.o)
 .data          0x0000000000000000        0x0 /usr/lib/gcc/arm-none-eabi/9.2.1/../../../arm-none-eabi/lib/thumb/v7-m/nofp/libg_nano.a(lib_a-strcpy.o)
 .bss           0x0000000000000000        0x0 /usr/lib/gcc/arm-none-eabi/9.2.1/../../../arm-none-eabi/lib/thumb/v7-m/nofp/libg_nano.a(lib_a-strcpy.o)
 .data          0x0000000000000000        0x0 /usr/lib/gcc/arm-none-eabi/9.2.1/../../../arm-none-eabi/lib/thumb/v7-m/nofp/libg_nano.a(lib_a-strlen-stub.o)
 .bss           0x0000000000000000        0x0 /usr/lib/gcc/arm-none-eabi/9.2.1/../../../arm-none-eabi/lib/thumb/v7-m/nofp/libg_nano.a(lib_a-strlen-stub.o)
 .data          0x0000000000000000        0x0 /usr/lib/gcc/arm-none-eabi/9.2.1/../../../arm-none-eabi/lib/thumb/v7-m/nofp/libg_nano.a(lib_a-strncmp.o)
 .bss           0x0000000000000000        0x0 /usr/lib/gcc/arm-none-eabi/9.2.1/../../../arm-none-eabi/lib/thumb/v7-m/nofp/libg_nano.a(lib_a-strncmp.o)

Memory Configuration

Name             Origin             Length             Attributes
FLASH            0x0000000008000000 0x0000000000080000 xr
RAM              0x0000000020000000 0x0000000000020000 xrw
MEMORY_B1        0x0000000060000000 0x0000000000000000 xr
*default*        0x0000000000000000 0xffffffffffffffff

Linker script and memory map

LOAD CMakeFiles/bootloader.dir/__/f2/system_stm32f2xx.c.o
LOAD CMakeFiles/bootloader.dir/__/__/__/__/__/thirdparty/STM32F2xx_StdPeriph_Lib_V1.1.0/Libraries/CMSIS/Device/ST/STM32F2xx/Source/Templates/gcc_ride7/startup_stm32f2xx.s.o
LOAD CMakeFiles/bootloader.dir/__/__/__/__/__/thirdparty/STM32F2xx_StdPeriph_Lib_V1.1.0/Libraries/STM32F2xx_StdPeriph_Driver/src/stm32f2xx_rcc.c.o
LOAD CMakeFiles/bootloader.dir/__/__/__/__/__/thirdparty/STM32F2xx_StdPeriph_Lib_V1.1.0/Libraries/STM32F2xx_StdPeriph_Driver/src/stm32f2xx_syscfg.c.o
LOAD CMakeFiles/bootloader.dir/__/__/__/__/__/thirdparty/STM32F2xx_StdPeriph_Lib_V1.1.0/Libraries/STM32F2xx_StdPeriph_Driver/src/stm32f2xx_gpio.c.o
LOAD CMakeFiles/bootloader.dir/__/__/__/__/__/thirdparty/STM32F2xx_StdPeriph_Lib_V1.1.0/Libraries/STM32F2xx_StdPeriph_Driver/src/stm32f2xx_exti.c.o
LOAD CMakeFiles/bootloader.dir/__/__/__/__/__/thirdparty/STM32F2xx_StdPeriph_Lib_V1.1.0/Libraries/STM32F2xx_StdPeriph_Driver/src/stm32f2xx_spi.c.o
LOAD CMakeFiles/bootloader.dir/__/__/__/__/__/thirdparty/STM32F2xx_StdPeriph_Lib_V1.1.0/Libraries/STM32F2xx_StdPeriph_Driver/src/stm32f2xx_i2c.c.o
LOAD CMakeFiles/bootloader.dir/__/__/__/__/__/thirdparty/STM32F2xx_StdPeriph_Lib_V1.1.0/Libraries/STM32F2xx_StdPeriph_Driver/src/misc.c.o
LOAD CMakeFiles/bootloader.dir/__/__/__/__/__/gui/128x64/fonts.cpp.o
LOAD CMakeFiles/bootloader.dir/__/__/__/__/__/keys.cpp.o
LOAD CMakeFiles/bootloader.dir/__/__/__/__/__/strhelpers.cpp.o
LOAD CMakeFiles/bootloader.dir/__/__/__/__/__/stamp.cpp.o
LOAD CMakeFiles/bootloader.dir/__/__/__/__/__/thirdparty/STM32_USB-Host-Device_Lib_V2.2.0/Libraries/STM32_USB_OTG_Driver/src/usb_core.c.o
LOAD CMakeFiles/bootloader.dir/__/__/__/__/__/thirdparty/STM32_USB-Host-Device_Lib_V2.2.0/Libraries/STM32_USB_OTG_Driver/src/usb_dcd.c.o
LOAD CMakeFiles/bootloader.dir/__/__/__/__/__/thirdparty/STM32_USB-Host-Device_Lib_V2.2.0/Libraries/STM32_USB_OTG_Driver/src/usb_dcd_int.c.o
LOAD CMakeFiles/bootloader.dir/__/__/__/__/__/thirdparty/STM32_USB-Host-Device_Lib_V2.2.0/Libraries/STM32_USB_Device_Library/Core/src/usbd_core.c.o
LOAD CMakeFiles/bootloader.dir/__/__/__/__/__/thirdparty/STM32_USB-Host-Device_Lib_V2.2.0/Libraries/STM32_USB_Device_Library/Core/src/usbd_ioreq.c.o
LOAD CMakeFiles/bootloader.dir/__/__/__/__/__/thirdparty/STM32_USB-Host-Device_Lib_V2.2.0/Libraries/STM32_USB_Device_Library/Core/src/usbd_req.c.o
LOAD CMakeFiles/bootloader.dir/__/__/__/__/__/thirdparty/STM32_USB-Host-Device_Lib_V2.2.0/Libraries/STM32_USB_Device_Library/Class/msc/src/usbd_msc_data.c.o
LOAD CMakeFiles/bootloader.dir/__/__/__/__/__/thirdparty/STM32_USB-Host-Device_Lib_V2.2.0/Libraries/STM32_USB_Device_Library/Class/msc/src/usbd_msc_scsi.c.o
LOAD CMakeFiles/bootloader.dir/__/__/__/__/__/thirdparty/STM32_USB-Host-Device_Lib_V2.2.0/Libraries/STM32_USB_Device_Library/Class/msc/src/usbd_msc_bot.c.o
LOAD CMakeFiles/bootloader.dir/__/__/__/__/__/thirdparty/STM32_USB-Host-Device_Lib_V2.2.0/Libraries/STM32_USB_Device_Library/Class/msc/src/usbd_msc_core.c.o
LOAD CMakeFiles/bootloader.dir/__/__/__/__/__/thirdparty/FatFs/ff.c.o
LOAD CMakeFiles/bootloader.dir/__/__/__/__/__/thirdparty/FatFs/option/ccsbcs.c.o
LOAD CMakeFiles/bootloader.dir/__/__/__/__/taranis/lcd_driver_spi.cpp.o
LOAD CMakeFiles/bootloader.dir/__/__/__/__/taranis/backlight_driver.cpp.o
LOAD CMakeFiles/bootloader.dir/__/__/__/__/taranis/keys_driver.cpp.o
LOAD CMakeFiles/bootloader.dir/__/__/__/__/taranis/diskio.cpp.o
LOAD CMakeFiles/bootloader.dir/__/__/__/__/taranis/board.cpp.o
LOAD CMakeFiles/bootloader.dir/__/pwr_driver.cpp.o
LOAD CMakeFiles/bootloader.dir/__/__/__/__/taranis/bootloader/boot_menu.cpp.o
LOAD CMakeFiles/bootloader.dir/__/usbd_usr.cpp.o
LOAD CMakeFiles/bootloader.dir/__/usbd_storage_msd.cpp.o
LOAD CMakeFiles/bootloader.dir/__/delays.cpp.o
LOAD CMakeFiles/bootloader.dir/__/usbd_desc.c.o
LOAD CMakeFiles/bootloader.dir/__/usb_bsp.c.o
LOAD CMakeFiles/bootloader.dir/__/usb_driver.cpp.o
LOAD CMakeFiles/bootloader.dir/__/flash_driver.cpp.o
LOAD CMakeFiles/bootloader.dir/init.c.o
LOAD CMakeFiles/bootloader.dir/boot.cpp.o
LOAD CMakeFiles/bootloader.dir/bin_files.cpp.o
LOAD CMakeFiles/bootloader.dir/__/__/__/__/__/gui/common/stdlcd/lcd_1bit.cpp.o
LOAD CMakeFiles/bootloader.dir/__/rotary_encoder_driver.cpp.o
LOAD CMakeFiles/bootloader.dir/__/bluetooth_driver.cpp.o
LOAD CMakeFiles/bootloader.dir/__/__/__/__/taranis/i2c_driver.cpp.o
LOAD /usr/lib/gcc/arm-none-eabi/9.2.1/../../../arm-none-eabi/lib/thumb/v7-m/nofp/libstdc++_nano.a
LOAD /usr/lib/gcc/arm-none-eabi/9.2.1/../../../arm-none-eabi/lib/thumb/v7-m/nofp/libm.a
START GROUP
LOAD /usr/lib/gcc/arm-none-eabi/9.2.1/thumb/v7-m/nofp/libgcc.a
LOAD /usr/lib/gcc/arm-none-eabi/9.2.1/../../../arm-none-eabi/lib/thumb/v7-m/nofp/libg_nano.a
LOAD /usr/lib/gcc/arm-none-eabi/9.2.1/../../../arm-none-eabi/lib/thumb/v7-m/nofp/libc_nano.a
END GROUP
START GROUP
LOAD /usr/lib/gcc/arm-none-eabi/9.2.1/thumb/v7-m/nofp/libgcc.a
LOAD /usr/lib/gcc/arm-none-eabi/9.2.1/../../../arm-none-eabi/lib/thumb/v7-m/nofp/libc_nano.a
END GROUP
                0x0000000020020000                _estack = 0x20020000
                0x0000000000000000                _Min_Heap_Size = 0x0
                0x0000000000000400                _Main_Stack_Size = 0x400
                0x000000002001fc00                _main_stack_start = (_estack - _Main_Stack_Size)

.text           0x0000000008000000     0x72e8
                0x0000000008000000                . = ALIGN (0x4)
 *(.isr_vector)
 .isr_vector    0x0000000008000000      0x184 CMakeFiles/bootloader.dir/__/__/__/__/__/thirdparty/STM32F2xx_StdPeriph_Lib_V1.1.0/Libraries/CMSIS/Device/ST/STM32F2xx/Source/Templates/gcc_ride7/startup_stm32f2xx.s.o
                0x0000000008000000                g_pfnVectors
 *(.version)
 .version       0x0000000008000184        0x6 CMakeFiles/bootloader.dir/boot.cpp.o
 *(.bootversiondata)
 .bootversiondata
                0x000000000800018a       0x1c CMakeFiles/bootloader.dir/__/__/__/__/__/stamp.cpp.o
                0x00000000080001a8                . = ALIGN (0x4)
 *fill*         0x00000000080001a6        0x2 
 *(.text)
 .text          0x00000000080001a8       0x48 /usr/lib/gcc/arm-none-eabi/9.2.1/../../../arm-none-eabi/lib/thumb/v7-m/nofp/libg_nano.a(lib_a-init.o)
                0x00000000080001a8                __libc_init_array
 .text          0x00000000080001f0       0x60 /usr/lib/gcc/arm-none-eabi/9.2.1/../../../arm-none-eabi/lib/thumb/v7-m/nofp/libg_nano.a(lib_a-memcmp.o)
                0x00000000080001f0                memcmp
 .text          0x0000000008000250       0xec /usr/lib/gcc/arm-none-eabi/9.2.1/../../../arm-none-eabi/lib/thumb/v7-m/nofp/libg_nano.a(lib_a-memcpy.o)
                0x0000000008000250                memcpy
 .text          0x000000000800033c       0xa0 /usr/lib/gcc/arm-none-eabi/9.2.1/../../../arm-none-eabi/lib/thumb/v7-m/nofp/libg_nano.a(lib_a-memset.o)
                0x000000000800033c                memset
 .text          0x00000000080003dc       0xbc /usr/lib/gcc/arm-none-eabi/9.2.1/../../../arm-none-eabi/lib/thumb/v7-m/nofp/libg_nano.a(lib_a-strcpy.o)
                0x00000000080003dc                strcpy
 .text          0x0000000008000498       0x5c /usr/lib/gcc/arm-none-eabi/9.2.1/../../../arm-none-eabi/lib/thumb/v7-m/nofp/libg_nano.a(lib_a-strlen-stub.o)
                0x0000000008000498                strlen
 .text          0x00000000080004f4       0xa0 /usr/lib/gcc/arm-none-eabi/9.2.1/../../../arm-none-eabi/lib/thumb/v7-m/nofp/libg_nano.a(lib_a-strncmp.o)
                0x00000000080004f4                strncmp
 *(.text*)
 .text.SystemInit
                0x0000000008000594       0xd4 CMakeFiles/bootloader.dir/__/f2/system_stm32f2xx.c.o
                0x0000000008000594                SystemInit
 .text.Reset_Handler
                0x0000000008000668       0x64 CMakeFiles/bootloader.dir/__/__/__/__/__/thirdparty/STM32F2xx_StdPeriph_Lib_V1.1.0/Libraries/CMSIS/Device/ST/STM32F2xx/Source/Templates/gcc_ride7/startup_stm32f2xx.s.o
                0x0000000008000668                Reset_Handler
 .text.Default_Handler
                0x00000000080006cc        0x2 CMakeFiles/bootloader.dir/__/__/__/__/__/thirdparty/STM32F2xx_StdPeriph_Lib_V1.1.0/Libraries/CMSIS/Device/ST/STM32F2xx/Source/Templates/gcc_ride7/startup_stm32f2xx.s.o
                0x00000000080006cc                RTC_Alarm_IRQHandler
                0x00000000080006cc                HASH_RNG_IRQHandler
                0x00000000080006cc                EXTI2_IRQHandler
                0x00000000080006cc                TIM8_CC_IRQHandler
                0x00000000080006cc                DebugMon_Handler
                0x00000000080006cc                TIM1_CC_IRQHandler
                0x00000000080006cc                DMA2_Stream5_IRQHandler
                0x00000000080006cc                HardFault_Handler
                0x00000000080006cc                DMA1_Stream5_IRQHandler
                0x00000000080006cc                SysTick_Handler
                0x00000000080006cc                PVD_IRQHandler
                0x00000000080006cc                SDIO_IRQHandler
                0x00000000080006cc                TAMP_STAMP_IRQHandler
                0x00000000080006cc                PendSV_Handler
                0x00000000080006cc                NMI_Handler
                0x00000000080006cc                CAN2_RX1_IRQHandler
                0x00000000080006cc                EXTI3_IRQHandler
                0x00000000080006cc                TIM1_UP_TIM10_IRQHandler
                0x00000000080006cc                TIM8_UP_TIM13_IRQHandler
                0x00000000080006cc                I2C3_ER_IRQHandler
                0x00000000080006cc                EXTI0_IRQHandler
                0x00000000080006cc                I2C2_EV_IRQHandler
                0x00000000080006cc                DMA1_Stream2_IRQHandler
                0x00000000080006cc                CAN1_RX0_IRQHandler
                0x00000000080006cc                OTG_HS_WKUP_IRQHandler
                0x00000000080006cc                UsageFault_Handler
                0x00000000080006cc                CAN2_SCE_IRQHandler
                0x00000000080006cc                DMA2_Stream2_IRQHandler
                0x00000000080006cc                SPI1_IRQHandler
                0x00000000080006cc                TIM6_DAC_IRQHandler
                0x00000000080006cc                TIM1_BRK_TIM9_IRQHandler
                0x00000000080006cc                DCMI_IRQHandler
                0x00000000080006cc                CAN2_RX0_IRQHandler
                0x00000000080006cc                DMA2_Stream3_IRQHandler
                0x00000000080006cc                USART6_IRQHandler
                0x00000000080006cc                USART3_IRQHandler
                0x00000000080006cc                CRYP_IRQHandler
                0x00000000080006cc                CAN1_RX1_IRQHandler
                0x00000000080006cc                UART5_IRQHandler
                0x00000000080006cc                DMA2_Stream0_IRQHandler
                0x00000000080006cc                TIM4_IRQHandler
                0x00000000080006cc                I2C1_EV_IRQHandler
                0x00000000080006cc                DMA1_Stream6_IRQHandler
                0x00000000080006cc                DMA1_Stream1_IRQHandler
                0x00000000080006cc                UART4_IRQHandler
                0x00000000080006cc                TIM3_IRQHandler
                0x00000000080006cc                RCC_IRQHandler
                0x00000000080006cc                TIM8_BRK_TIM12_IRQHandler
                0x00000000080006cc                Default_Handler
                0x00000000080006cc                ADC_IRQHandler
                0x00000000080006cc                TIM7_IRQHandler
                0x00000000080006cc                CAN2_TX_IRQHandler
                0x00000000080006cc                DMA2_Stream7_IRQHandler
                0x00000000080006cc                I2C3_EV_IRQHandler
                0x00000000080006cc                RTC_WKUP_IRQHandler
                0x00000000080006cc                ETH_WKUP_IRQHandler
                0x00000000080006cc                SPI2_IRQHandler
                0x00000000080006cc                OTG_HS_EP1_IN_IRQHandler
                0x00000000080006cc                MemManage_Handler
                0x00000000080006cc                DMA1_Stream0_IRQHandler
                0x00000000080006cc                CAN1_TX_IRQHandler
                0x00000000080006cc                SVC_Handler
                0x00000000080006cc                EXTI4_IRQHandler
                0x00000000080006cc                FSMC_IRQHandler
                0x00000000080006cc                ETH_IRQHandler
                0x00000000080006cc                OTG_HS_EP1_OUT_IRQHandler
                0x00000000080006cc                WWDG_IRQHandler
                0x00000000080006cc                TIM2_IRQHandler
                0x00000000080006cc                OTG_FS_WKUP_IRQHandler
                0x00000000080006cc                TIM1_TRG_COM_TIM11_IRQHandler
                0x00000000080006cc                OTG_HS_IRQHandler
                0x00000000080006cc                EXTI1_IRQHandler
                0x00000000080006cc                USART2_IRQHandler
                0x00000000080006cc                I2C2_ER_IRQHandler
                0x00000000080006cc                DMA2_Stream1_IRQHandler
                0x00000000080006cc                CAN1_SCE_IRQHandler
                0x00000000080006cc                FLASH_IRQHandler
                0x00000000080006cc                DMA2_Stream4_IRQHandler
                0x00000000080006cc                BusFault_Handler
                0x00000000080006cc                USART1_IRQHandler
                0x00000000080006cc                SPI3_IRQHandler
                0x00000000080006cc                DMA1_Stream4_IRQHandler
                0x00000000080006cc                I2C1_ER_IRQHandler
                0x00000000080006cc                DMA2_Stream6_IRQHandler
                0x00000000080006cc                DMA1_Stream3_IRQHandler
 *fill*         0x00000000080006ce        0x2 
 .text.RCC_GetClocksFreq
                0x00000000080006d0       0x88 CMakeFiles/bootloader.dir/__/__/__/__/__/thirdparty/STM32F2xx_StdPeriph_Lib_V1.1.0/Libraries/STM32F2xx_StdPeriph_Driver/src/stm32f2xx_rcc.c.o
                0x00000000080006d0                RCC_GetClocksFreq
 .text.RCC_AHB1PeriphClockCmd
                0x0000000008000758       0x18 CMakeFiles/bootloader.dir/__/__/__/__/__/thirdparty/STM32F2xx_StdPeriph_Lib_V1.1.0/Libraries/STM32F2xx_StdPeriph_Driver/src/stm32f2xx_rcc.c.o
                0x0000000008000758                RCC_AHB1PeriphClockCmd
 .text.RCC_AHB2PeriphClockCmd
                0x0000000008000770       0x18 CMakeFiles/bootloader.dir/__/__/__/__/__/thirdparty/STM32F2xx_StdPeriph_Lib_V1.1.0/Libraries/STM32F2xx_StdPeriph_Driver/src/stm32f2xx_rcc.c.o
                0x0000000008000770                RCC_AHB2PeriphClockCmd
 .text.RCC_APB1PeriphClockCmd
                0x0000000008000788       0x18 CMakeFiles/bootloader.dir/__/__/__/__/__/thirdparty/STM32F2xx_StdPeriph_Lib_V1.1.0/Libraries/STM32F2xx_StdPeriph_Driver/src/stm32f2xx_rcc.c.o
                0x0000000008000788                RCC_APB1PeriphClockCmd
 .text.RCC_APB2PeriphClockCmd
                0x00000000080007a0       0x18 CMakeFiles/bootloader.dir/__/__/__/__/__/thirdparty/STM32F2xx_StdPeriph_Lib_V1.1.0/Libraries/STM32F2xx_StdPeriph_Driver/src/stm32f2xx_rcc.c.o
                0x00000000080007a0                RCC_APB2PeriphClockCmd
 .text.RCC_APB1PeriphResetCmd
                0x00000000080007b8       0x18 CMakeFiles/bootloader.dir/__/__/__/__/__/thirdparty/STM32F2xx_StdPeriph_Lib_V1.1.0/Libraries/STM32F2xx_StdPeriph_Driver/src/stm32f2xx_rcc.c.o
                0x00000000080007b8                RCC_APB1PeriphResetCmd
 .text.RCC_APB2PeriphResetCmd
                0x00000000080007d0       0x18 CMakeFiles/bootloader.dir/__/__/__/__/__/thirdparty/STM32F2xx_StdPeriph_Lib_V1.1.0/Libraries/STM32F2xx_StdPeriph_Driver/src/stm32f2xx_rcc.c.o
                0x00000000080007d0                RCC_APB2PeriphResetCmd
 .text.SYSCFG_EXTILineConfig
                0x00000000080007e8       0x2a CMakeFiles/bootloader.dir/__/__/__/__/__/thirdparty/STM32F2xx_StdPeriph_Lib_V1.1.0/Libraries/STM32F2xx_StdPeriph_Driver/src/stm32f2xx_syscfg.c.o
                0x00000000080007e8                SYSCFG_EXTILineConfig
 .text.GPIO_Init
                0x0000000008000812       0x84 CMakeFiles/bootloader.dir/__/__/__/__/__/thirdparty/STM32F2xx_StdPeriph_Lib_V1.1.0/Libraries/STM32F2xx_StdPeriph_Driver/src/stm32f2xx_gpio.c.o
                0x0000000008000812                GPIO_Init
 .text.GPIO_ReadInputDataBit
                0x0000000008000896        0xc CMakeFiles/bootloader.dir/__/__/__/__/__/thirdparty/STM32F2xx_StdPeriph_Lib_V1.1.0/Libraries/STM32F2xx_StdPeriph_Driver/src/stm32f2xx_gpio.c.o
                0x0000000008000896                GPIO_ReadInputDataBit
 .text.GPIO_SetBits
                0x00000000080008a2        0x4 CMakeFiles/bootloader.dir/__/__/__/__/__/thirdparty/STM32F2xx_StdPeriph_Lib_V1.1.0/Libraries/STM32F2xx_StdPeriph_Driver/src/stm32f2xx_gpio.c.o
                0x00000000080008a2                GPIO_SetBits
 .text.GPIO_ResetBits
                0x00000000080008a6        0x4 CMakeFiles/bootloader.dir/__/__/__/__/__/thirdparty/STM32F2xx_StdPeriph_Lib_V1.1.0/Libraries/STM32F2xx_StdPeriph_Driver/src/stm32f2xx_gpio.c.o
                0x00000000080008a6                GPIO_ResetBits
 .text.GPIO_PinAFConfig
                0x00000000080008aa       0x24 CMakeFiles/bootloader.dir/__/__/__/__/__/thirdparty/STM32F2xx_StdPeriph_Lib_V1.1.0/Libraries/STM32F2xx_StdPeriph_Driver/src/stm32f2xx_gpio.c.o
                0x00000000080008aa                GPIO_PinAFConfig
 *fill*         0x00000000080008ce        0x2 
 .text.EXTI_Init
                0x00000000080008d0       0x6c CMakeFiles/bootloader.dir/__/__/__/__/__/thirdparty/STM32F2xx_StdPeriph_Lib_V1.1.0/Libraries/STM32F2xx_StdPeriph_Driver/src/stm32f2xx_exti.c.o
                0x00000000080008d0                EXTI_Init
 .text.EXTI_StructInit
                0x000000000800093c        0xe CMakeFiles/bootloader.dir/__/__/__/__/__/thirdparty/STM32F2xx_StdPeriph_Lib_V1.1.0/Libraries/STM32F2xx_StdPeriph_Driver/src/stm32f2xx_exti.c.o
                0x000000000800093c                EXTI_StructInit
 *fill*         0x000000000800094a        0x2 
 .text.EXTI_GetITStatus
                0x000000000800094c       0x1c CMakeFiles/bootloader.dir/__/__/__/__/__/thirdparty/STM32F2xx_StdPeriph_Lib_V1.1.0/Libraries/STM32F2xx_StdPeriph_Driver/src/stm32f2xx_exti.c.o
                0x000000000800094c                EXTI_GetITStatus
 .text.EXTI_ClearITPendingBit
                0x0000000008000968        0xc CMakeFiles/bootloader.dir/__/__/__/__/__/thirdparty/STM32F2xx_StdPeriph_Lib_V1.1.0/Libraries/STM32F2xx_StdPeriph_Driver/src/stm32f2xx_exti.c.o
                0x0000000008000968                EXTI_ClearITPendingBit
 .text.SPI_I2S_DeInit
                0x0000000008000974       0x64 CMakeFiles/bootloader.dir/__/__/__/__/__/thirdparty/STM32F2xx_StdPeriph_Lib_V1.1.0/Libraries/STM32F2xx_StdPeriph_Driver/src/stm32f2xx_spi.c.o
                0x0000000008000974                SPI_I2S_DeInit
 .text.SPI_Init
                0x00000000080009d8       0x3e CMakeFiles/bootloader.dir/__/__/__/__/__/thirdparty/STM32F2xx_StdPeriph_Lib_V1.1.0/Libraries/STM32F2xx_StdPeriph_Driver/src/stm32f2xx_spi.c.o
                0x00000000080009d8                SPI_Init
 .text.SPI_Cmd  0x0000000008000a16       0x18 CMakeFiles/bootloader.dir/__/__/__/__/__/thirdparty/STM32F2xx_StdPeriph_Lib_V1.1.0/Libraries/STM32F2xx_StdPeriph_Driver/src/stm32f2xx_spi.c.o
                0x0000000008000a16                SPI_Cmd
 .text.SPI_I2S_ReceiveData
                0x0000000008000a2e        0x6 CMakeFiles/bootloader.dir/__/__/__/__/__/thirdparty/STM32F2xx_StdPeriph_Lib_V1.1.0/Libraries/STM32F2xx_StdPeriph_Driver/src/stm32f2xx_spi.c.o
                0x0000000008000a2e                SPI_I2S_ReceiveData
 .text.SPI_I2S_SendData
                0x0000000008000a34        0x4 CMakeFiles/bootloader.dir/__/__/__/__/__/thirdparty/STM32F2xx_StdPeriph_Lib_V1.1.0/Libraries/STM32F2xx_StdPeriph_Driver/src/stm32f2xx_spi.c.o
                0x0000000008000a34                SPI_I2S_SendData
 .text.SPI_CalculateCRC
                0x0000000008000a38       0x18 CMakeFiles/bootloader.dir/__/__/__/__/__/thirdparty/STM32F2xx_StdPeriph_Lib_V1.1.0/Libraries/STM32F2xx_StdPeriph_Driver/src/stm32f2xx_spi.c.o
                0x0000000008000a38                SPI_CalculateCRC
 .text.SPI_I2S_GetFlagStatus
                0x0000000008000a50        0xc CMakeFiles/bootloader.dir/__/__/__/__/__/thirdparty/STM32F2xx_StdPeriph_Lib_V1.1.0/Libraries/STM32F2xx_StdPeriph_Driver/src/stm32f2xx_spi.c.o
                0x0000000008000a50                SPI_I2S_GetFlagStatus
 .text.I2C_DeInit
                0x0000000008000a5c       0x60 CMakeFiles/bootloader.dir/__/__/__/__/__/thirdparty/STM32F2xx_StdPeriph_Lib_V1.1.0/Libraries/STM32F2xx_StdPeriph_Driver/src/stm32f2xx_i2c.c.o
                0x0000000008000a5c                I2C_DeInit
 .text.I2C_Init
                0x0000000008000abc       0xd0 CMakeFiles/bootloader.dir/__/__/__/__/__/thirdparty/STM32F2xx_StdPeriph_Lib_V1.1.0/Libraries/STM32F2xx_StdPeriph_Driver/src/stm32f2xx_i2c.c.o
                0x0000000008000abc                I2C_Init
 .text.I2C_Cmd  0x0000000008000b8c       0x18 CMakeFiles/bootloader.dir/__/__/__/__/__/thirdparty/STM32F2xx_StdPeriph_Lib_V1.1.0/Libraries/STM32F2xx_StdPeriph_Driver/src/stm32f2xx_i2c.c.o
                0x0000000008000b8c                I2C_Cmd
 .text.I2C_GenerateSTART
                0x0000000008000ba4       0x18 CMakeFiles/bootloader.dir/__/__/__/__/__/thirdparty/STM32F2xx_StdPeriph_Lib_V1.1.0/Libraries/STM32F2xx_StdPeriph_Driver/src/stm32f2xx_i2c.c.o
                0x0000000008000ba4                I2C_GenerateSTART
 .text.I2C_GenerateSTOP
                0x0000000008000bbc       0x18 CMakeFiles/bootloader.dir/__/__/__/__/__/thirdparty/STM32F2xx_StdPeriph_Lib_V1.1.0/Libraries/STM32F2xx_StdPeriph_Driver/src/stm32f2xx_i2c.c.o
                0x0000000008000bbc                I2C_GenerateSTOP
 .text.I2C_Send7bitAddress
                0x0000000008000bd4       0x12 CMakeFiles/bootloader.dir/__/__/__/__/__/thirdparty/STM32F2xx_StdPeriph_Lib_V1.1.0/Libraries/STM32F2xx_StdPeriph_Driver/src/stm32f2xx_i2c.c.o
                0x0000000008000bd4                I2C_Send7bitAddress
 .text.I2C_AcknowledgeConfig
                0x0000000008000be6       0x18 CMakeFiles/bootloader.dir/__/__/__/__/__/thirdparty/STM32F2xx_StdPeriph_Lib_V1.1.0/Libraries/STM32F2xx_StdPeriph_Driver/src/stm32f2xx_i2c.c.o
                0x0000000008000be6                I2C_AcknowledgeConfig
 .text.I2C_SendData
                0x0000000008000bfe        0x4 CMakeFiles/bootloader.dir/__/__/__/__/__/thirdparty/STM32F2xx_StdPeriph_Lib_V1.1.0/Libraries/STM32F2xx_StdPeriph_Driver/src/stm32f2xx_i2c.c.o
                0x0000000008000bfe                I2C_SendData
 .text.I2C_ReceiveData
                0x0000000008000c02        0x6 CMakeFiles/bootloader.dir/__/__/__/__/__/thirdparty/STM32F2xx_StdPeriph_Lib_V1.1.0/Libraries/STM32F2xx_StdPeriph_Driver/src/stm32f2xx_i2c.c.o
                0x0000000008000c02                I2C_ReceiveData
 .text.I2C_CheckEvent
                0x0000000008000c08       0x18 CMakeFiles/bootloader.dir/__/__/__/__/__/thirdparty/STM32F2xx_StdPeriph_Lib_V1.1.0/Libraries/STM32F2xx_StdPeriph_Driver/src/stm32f2xx_i2c.c.o
                0x0000000008000c08                I2C_CheckEvent
 .text.NVIC_Init
                0x0000000008000c20       0x58 CMakeFiles/bootloader.dir/__/__/__/__/__/thirdparty/STM32F2xx_StdPeriph_Lib_V1.1.0/Libraries/STM32F2xx_StdPeriph_Driver/src/misc.c.o
                0x0000000008000c20                NVIC_Init
 .text._Z8getEventb
                0x0000000008000c78       0x28 CMakeFiles/bootloader.dir/__/__/__/__/__/keys.cpp.o
                0x0000000008000c78                getEvent(bool)
 .text._ZN3Key5inputEb
                0x0000000008000ca0       0xf0 CMakeFiles/bootloader.dir/__/__/__/__/__/keys.cpp.o
                0x0000000008000ca0                Key::input(bool)
 .text._Z9strAppendPcPKci
                0x0000000008000d90       0x20 CMakeFiles/bootloader.dir/__/__/__/__/__/strhelpers.cpp.o
                0x0000000008000d90                strAppend(char*, char const*, int)
 .text._Z18getFirmwareVersionPKc
                0x0000000008000db0       0x38 CMakeFiles/bootloader.dir/__/__/__/__/__/stamp.cpp.o
                0x0000000008000db0                getFirmwareVersion(char const*)
 .text.USB_OTG_CoreReset.isra.0
                0x0000000008000de8       0x4c CMakeFiles/bootloader.dir/__/__/__/__/__/thirdparty/STM32_USB-Host-Device_Lib_V2.2.0/Libraries/STM32_USB_OTG_Driver/src/usb_core.c.o
 .text.USB_OTG_WritePacket
                0x0000000008000e34       0x28 CMakeFiles/bootloader.dir/__/__/__/__/__/thirdparty/STM32_USB-Host-Device_Lib_V2.2.0/Libraries/STM32_USB_OTG_Driver/src/usb_core.c.o
                0x0000000008000e34                USB_OTG_WritePacket
 .text.USB_OTG_ReadPacket
                0x0000000008000e5c       0x20 CMakeFiles/bootloader.dir/__/__/__/__/__/thirdparty/STM32_USB-Host-Device_Lib_V2.2.0/Libraries/STM32_USB_OTG_Driver/src/usb_core.c.o
                0x0000000008000e5c                USB_OTG_ReadPacket
 .text.USB_OTG_SelectCore
                0x0000000008000e7c       0xb8 CMakeFiles/bootloader.dir/__/__/__/__/__/thirdparty/STM32_USB-Host-Device_Lib_V2.2.0/Libraries/STM32_USB_OTG_Driver/src/usb_core.c.o
                0x0000000008000e7c                USB_OTG_SelectCore
 .text.USB_OTG_CoreInit
                0x0000000008000f34       0x84 CMakeFiles/bootloader.dir/__/__/__/__/__/thirdparty/STM32_USB-Host-Device_Lib_V2.2.0/Libraries/STM32_USB_OTG_Driver/src/usb_core.c.o
                0x0000000008000f34                USB_OTG_CoreInit
 .text.USB_OTG_EnableGlobalInt
                0x0000000008000fb8        0xe CMakeFiles/bootloader.dir/__/__/__/__/__/thirdparty/STM32_USB-Host-Device_Lib_V2.2.0/Libraries/STM32_USB_OTG_Driver/src/usb_core.c.o
                0x0000000008000fb8                USB_OTG_EnableGlobalInt
 .text.USB_OTG_DisableGlobalInt
                0x0000000008000fc6        0xe CMakeFiles/bootloader.dir/__/__/__/__/__/thirdparty/STM32_USB-Host-Device_Lib_V2.2.0/Libraries/STM32_USB_OTG_Driver/src/usb_core.c.o
                0x0000000008000fc6                USB_OTG_DisableGlobalInt
 .text.USB_OTG_FlushTxFifo
                0x0000000008000fd4       0x40 CMakeFiles/bootloader.dir/__/__/__/__/__/thirdparty/STM32_USB-Host-Device_Lib_V2.2.0/Libraries/STM32_USB_OTG_Driver/src/usb_core.c.o
                0x0000000008000fd4                USB_OTG_FlushTxFifo
 .text.USB_OTG_FlushRxFifo
                0x0000000008001014       0x38 CMakeFiles/bootloader.dir/__/__/__/__/__/thirdparty/STM32_USB-Host-Device_Lib_V2.2.0/Libraries/STM32_USB_OTG_Driver/src/usb_core.c.o
                0x0000000008001014                USB_OTG_FlushRxFifo
 .text.USB_OTG_SetCurrentMode
                0x000000000800104c       0x30 CMakeFiles/bootloader.dir/__/__/__/__/__/thirdparty/STM32_USB-Host-Device_Lib_V2.2.0/Libraries/STM32_USB_OTG_Driver/src/usb_core.c.o
                0x000000000800104c                USB_OTG_SetCurrentMode
 .text.USB_OTG_IsDeviceMode
                0x000000000800107c        0xc CMakeFiles/bootloader.dir/__/__/__/__/__/thirdparty/STM32_USB-Host-Device_Lib_V2.2.0/Libraries/STM32_USB_OTG_Driver/src/usb_core.c.o
                0x000000000800107c                USB_OTG_IsDeviceMode
 .text.USB_OTG_ReadCoreItr
                0x0000000008001088        0xa CMakeFiles/bootloader.dir/__/__/__/__/__/thirdparty/STM32_USB-Host-Device_Lib_V2.2.0/Libraries/STM32_USB_OTG_Driver/src/usb_core.c.o
                0x0000000008001088                USB_OTG_ReadCoreItr
 .text.USB_OTG_InitDevSpeed
                0x0000000008001092        0xc CMakeFiles/bootloader.dir/__/__/__/__/__/thirdparty/STM32_USB-Host-Device_Lib_V2.2.0/Libraries/STM32_USB_OTG_Driver/src/usb_core.c.o
                0x0000000008001092                USB_OTG_InitDevSpeed
 *fill*         0x000000000800109e        0x2 
 .text.USB_OTG_EnableDevInt
                0x00000000080010a0       0x38 CMakeFiles/bootloader.dir/__/__/__/__/__/thirdparty/STM32_USB-Host-Device_Lib_V2.2.0/Libraries/STM32_USB_OTG_Driver/src/usb_core.c.o
                0x00000000080010a0                USB_OTG_EnableDevInt
 .text.USB_OTG_CoreInitDev
                0x00000000080010d8       0xd0 CMakeFiles/bootloader.dir/__/__/__/__/__/thirdparty/STM32_USB-Host-Device_Lib_V2.2.0/Libraries/STM32_USB_OTG_Driver/src/usb_core.c.o
                0x00000000080010d8                USB_OTG_CoreInitDev
 .text.USB_OTG_GetDeviceSpeed
                0x00000000080011a8       0x14 CMakeFiles/bootloader.dir/__/__/__/__/__/thirdparty/STM32_USB-Host-Device_Lib_V2.2.0/Libraries/STM32_USB_OTG_Driver/src/usb_core.c.o
                0x00000000080011a8                USB_OTG_GetDeviceSpeed
 .text.USB_OTG_EP0Activate
                0x00000000080011bc       0x28 CMakeFiles/bootloader.dir/__/__/__/__/__/thirdparty/STM32_USB-Host-Device_Lib_V2.2.0/Libraries/STM32_USB_OTG_Driver/src/usb_core.c.o
                0x00000000080011bc                USB_OTG_EP0Activate
 .text.USB_OTG_EPActivate
                0x00000000080011e4       0x68 CMakeFiles/bootloader.dir/__/__/__/__/__/thirdparty/STM32_USB-Host-Device_Lib_V2.2.0/Libraries/STM32_USB_OTG_Driver/src/usb_core.c.o
                0x00000000080011e4                USB_OTG_EPActivate
 .text.USB_OTG_EPDeactivate
                0x000000000800124c       0x3a CMakeFiles/bootloader.dir/__/__/__/__/__/thirdparty/STM32_USB-Host-Device_Lib_V2.2.0/Libraries/STM32_USB_OTG_Driver/src/usb_core.c.o
                0x000000000800124c                USB_OTG_EPDeactivate
 *fill*         0x0000000008001286        0x2 
 .text.USB_OTG_EPStartXfer
                0x0000000008001288      0x114 CMakeFiles/bootloader.dir/__/__/__/__/__/thirdparty/STM32_USB-Host-Device_Lib_V2.2.0/Libraries/STM32_USB_OTG_Driver/src/usb_core.c.o
                0x0000000008001288                USB_OTG_EPStartXfer
 .text.USB_OTG_EP0StartXfer
                0x000000000800139c       0xa6 CMakeFiles/bootloader.dir/__/__/__/__/__/thirdparty/STM32_USB-Host-Device_Lib_V2.2.0/Libraries/STM32_USB_OTG_Driver/src/usb_core.c.o
                0x000000000800139c                USB_OTG_EP0StartXfer
 .text.USB_OTG_EPSetStall
                0x0000000008001442       0x28 CMakeFiles/bootloader.dir/__/__/__/__/__/thirdparty/STM32_USB-Host-Device_Lib_V2.2.0/Libraries/STM32_USB_OTG_Driver/src/usb_core.c.o
                0x0000000008001442                USB_OTG_EPSetStall
 .text.USB_OTG_EPClearStall
                0x000000000800146a       0x28 CMakeFiles/bootloader.dir/__/__/__/__/__/thirdparty/STM32_USB-Host-Device_Lib_V2.2.0/Libraries/STM32_USB_OTG_Driver/src/usb_core.c.o
                0x000000000800146a                USB_OTG_EPClearStall
 .text.USB_OTG_ReadDevAllOutEp_itr
                0x0000000008001492        0xc CMakeFiles/bootloader.dir/__/__/__/__/__/thirdparty/STM32_USB-Host-Device_Lib_V2.2.0/Libraries/STM32_USB_OTG_Driver/src/usb_core.c.o
                0x0000000008001492                USB_OTG_ReadDevAllOutEp_itr
 .text.USB_OTG_ReadDevOutEP_itr
                0x000000000800149e       0x10 CMakeFiles/bootloader.dir/__/__/__/__/__/thirdparty/STM32_USB-Host-Device_Lib_V2.2.0/Libraries/STM32_USB_OTG_Driver/src/usb_core.c.o
                0x000000000800149e                USB_OTG_ReadDevOutEP_itr
 .text.USB_OTG_ReadDevAllInEPItr
                0x00000000080014ae        0xc CMakeFiles/bootloader.dir/__/__/__/__/__/thirdparty/STM32_USB-Host-Device_Lib_V2.2.0/Libraries/STM32_USB_OTG_Driver/src/usb_core.c.o
                0x00000000080014ae                USB_OTG_ReadDevAllInEPItr
 *fill*         0x00000000080014ba        0x2 
 .text.USB_OTG_EP0_OutStart
                0x00000000080014bc       0x20 CMakeFiles/bootloader.dir/__/__/__/__/__/thirdparty/STM32_USB-Host-Device_Lib_V2.2.0/Libraries/STM32_USB_OTG_Driver/src/usb_core.c.o
                0x00000000080014bc                USB_OTG_EP0_OutStart
 .text.DCD_Init
                0x00000000080014dc       0x94 CMakeFiles/bootloader.dir/__/__/__/__/__/thirdparty/STM32_USB-Host-Device_Lib_V2.2.0/Libraries/STM32_USB_OTG_Driver/src/usb_dcd.c.o
                0x00000000080014dc                DCD_Init
 .text.DCD_EP_Open
                0x0000000008001570       0x42 CMakeFiles/bootloader.dir/__/__/__/__/__/thirdparty/STM32_USB-Host-Device_Lib_V2.2.0/Libraries/STM32_USB_OTG_Driver/src/usb_dcd.c.o
                0x0000000008001570                DCD_EP_Open
 .text.DCD_EP_Close
                0x00000000080015b2       0x2c CMakeFiles/bootloader.dir/__/__/__/__/__/thirdparty/STM32_USB-Host-Device_Lib_V2.2.0/Libraries/STM32_USB_OTG_Driver/src/usb_dcd.c.o
                0x00000000080015b2                DCD_EP_Close
 .text.DCD_EP_PrepareRx
                0x00000000080015de       0x4c CMakeFiles/bootloader.dir/__/__/__/__/__/thirdparty/STM32_USB-Host-Device_Lib_V2.2.0/Libraries/STM32_USB_OTG_Driver/src/usb_dcd.c.o
                0x00000000080015de                DCD_EP_PrepareRx
 .text.DCD_EP_Tx
                0x000000000800162a       0x38 CMakeFiles/bootloader.dir/__/__/__/__/__/thirdparty/STM32_USB-Host-Device_Lib_V2.2.0/Libraries/STM32_USB_OTG_Driver/src/usb_dcd.c.o
                0x000000000800162a                DCD_EP_Tx
 .text.DCD_EP_Stall
                0x0000000008001662       0x34 CMakeFiles/bootloader.dir/__/__/__/__/__/thirdparty/STM32_USB-Host-Device_Lib_V2.2.0/Libraries/STM32_USB_OTG_Driver/src/usb_dcd.c.o
                0x0000000008001662                DCD_EP_Stall
 .text.DCD_EP_ClrStall
                0x0000000008001696       0x30 CMakeFiles/bootloader.dir/__/__/__/__/__/thirdparty/STM32_USB-Host-Device_Lib_V2.2.0/Libraries/STM32_USB_OTG_Driver/src/usb_dcd.c.o
                0x0000000008001696                DCD_EP_ClrStall
 .text.DCD_EP_Flush
                0x00000000080016c6       0x18 CMakeFiles/bootloader.dir/__/__/__/__/__/thirdparty/STM32_USB-Host-Device_Lib_V2.2.0/Libraries/STM32_USB_OTG_Driver/src/usb_dcd.c.o
                0x00000000080016c6                DCD_EP_Flush
 .text.DCD_EP_SetAddress
                0x00000000080016de       0x10 CMakeFiles/bootloader.dir/__/__/__/__/__/thirdparty/STM32_USB-Host-Device_Lib_V2.2.0/Libraries/STM32_USB_OTG_Driver/src/usb_dcd.c.o
                0x00000000080016de                DCD_EP_SetAddress
 *fill*         0x00000000080016ee        0x2 
 .text.USBD_OTG_ISR_Handler
                0x00000000080016f0      0x588 CMakeFiles/bootloader.dir/__/__/__/__/__/thirdparty/STM32_USB-Host-Device_Lib_V2.2.0/Libraries/STM32_USB_OTG_Driver/src/usb_dcd_int.c.o
                0x00000000080016f0                USBD_OTG_ISR_Handler
 .text.USBD_Resume
                0x0000000008001c78       0x16 CMakeFiles/bootloader.dir/__/__/__/__/__/thirdparty/STM32_USB-Host-Device_Lib_V2.2.0/Libraries/STM32_USB_Device_Library/Core/src/usbd_core.c.o
 .text.USBD_Suspend
                0x0000000008001c8e       0x1c CMakeFiles/bootloader.dir/__/__/__/__/__/thirdparty/STM32_USB-Host-Device_Lib_V2.2.0/Libraries/STM32_USB_Device_Library/Core/src/usbd_core.c.o
 .text.USBD_SOF
                0x0000000008001caa       0x10 CMakeFiles/bootloader.dir/__/__/__/__/__/thirdparty/STM32_USB-Host-Device_Lib_V2.2.0/Libraries/STM32_USB_Device_Library/Core/src/usbd_core.c.o
 .text.USBD_IsoINIncomplete
                0x0000000008001cba        0xe CMakeFiles/bootloader.dir/__/__/__/__/__/thirdparty/STM32_USB-Host-Device_Lib_V2.2.0/Libraries/STM32_USB_Device_Library/Core/src/usbd_core.c.o
 .text.USBD_IsoOUTIncomplete
                0x0000000008001cc8        0xe CMakeFiles/bootloader.dir/__/__/__/__/__/thirdparty/STM32_USB-Host-Device_Lib_V2.2.0/Libraries/STM32_USB_Device_Library/Core/src/usbd_core.c.o
 .text.USBD_DevConnected
                0x0000000008001cd6       0x16 CMakeFiles/bootloader.dir/__/__/__/__/__/thirdparty/STM32_USB-Host-Device_Lib_V2.2.0/Libraries/STM32_USB_Device_Library/Core/src/usbd_core.c.o
 .text.USBD_DevDisconnected
                0x0000000008001cec       0x20 CMakeFiles/bootloader.dir/__/__/__/__/__/thirdparty/STM32_USB-Host-Device_Lib_V2.2.0/Libraries/STM32_USB_Device_Library/Core/src/usbd_core.c.o
 .text.USBD_Reset
                0x0000000008001d0c       0x2e CMakeFiles/bootloader.dir/__/__/__/__/__/thirdparty/STM32_USB-Host-Device_Lib_V2.2.0/Libraries/STM32_USB_Device_Library/Core/src/usbd_core.c.o
 .text.USBD_SetupStage
                0x0000000008001d3a       0x4a CMakeFiles/bootloader.dir/__/__/__/__/__/thirdparty/STM32_USB-Host-Device_Lib_V2.2.0/Libraries/STM32_USB_Device_Library/Core/src/usbd_core.c.o
 .text.USBD_DataInStage
                0x0000000008001d84       0xc0 CMakeFiles/bootloader.dir/__/__/__/__/__/thirdparty/STM32_USB-Host-Device_Lib_V2.2.0/Libraries/STM32_USB_Device_Library/Core/src/usbd_core.c.o
 .text.USBD_DataOutStage
                0x0000000008001e44       0x76 CMakeFiles/bootloader.dir/__/__/__/__/__/thirdparty/STM32_USB-Host-Device_Lib_V2.2.0/Libraries/STM32_USB_Device_Library/Core/src/usbd_core.c.o
 .text.USBD_DeInit
                0x0000000008001eba       0x18 CMakeFiles/bootloader.dir/__/__/__/__/__/thirdparty/STM32_USB-Host-Device_Lib_V2.2.0/Libraries/STM32_USB_Device_Library/Core/src/usbd_core.c.o
                0x0000000008001eba                USBD_DeInit
 .text.USBD_Init
                0x0000000008001ed2       0x40 CMakeFiles/bootloader.dir/__/__/__/__/__/thirdparty/STM32_USB-Host-Device_Lib_V2.2.0/Libraries/STM32_USB_Device_Library/Core/src/usbd_core.c.o
                0x0000000008001ed2                USBD_Init
 .text.USBD_SetCfg
                0x0000000008001f12       0x18 CMakeFiles/bootloader.dir/__/__/__/__/__/thirdparty/STM32_USB-Host-Device_Lib_V2.2.0/Libraries/STM32_USB_Device_Library/Core/src/usbd_core.c.o
                0x0000000008001f12                USBD_SetCfg
 .text.USBD_ClrCfg
                0x0000000008001f2a        0xe CMakeFiles/bootloader.dir/__/__/__/__/__/thirdparty/STM32_USB-Host-Device_Lib_V2.2.0/Libraries/STM32_USB_Device_Library/Core/src/usbd_core.c.o
                0x0000000008001f2a                USBD_ClrCfg
 .text.USBD_CtlSendData
                0x0000000008001f38       0x1a CMakeFiles/bootloader.dir/__/__/__/__/__/thirdparty/STM32_USB-Host-Device_Lib_V2.2.0/Libraries/STM32_USB_Device_Library/Core/src/usbd_ioreq.c.o
                0x0000000008001f38                USBD_CtlSendData
 .text.USBD_CtlContinueSendData
                0x0000000008001f52       0x10 CMakeFiles/bootloader.dir/__/__/__/__/__/thirdparty/STM32_USB-Host-Device_Lib_V2.2.0/Libraries/STM32_USB_Device_Library/Core/src/usbd_ioreq.c.o
                0x0000000008001f52                USBD_CtlContinueSendData
 .text.USBD_CtlContinueRx
                0x0000000008001f62       0x10 CMakeFiles/bootloader.dir/__/__/__/__/__/thirdparty/STM32_USB-Host-Device_Lib_V2.2.0/Libraries/STM32_USB_Device_Library/Core/src/usbd_ioreq.c.o
                0x0000000008001f62                USBD_CtlContinueRx
 .text.USBD_CtlSendStatus
                0x0000000008001f72       0x1e CMakeFiles/bootloader.dir/__/__/__/__/__/thirdparty/STM32_USB-Host-Device_Lib_V2.2.0/Libraries/STM32_USB_Device_Library/Core/src/usbd_ioreq.c.o
                0x0000000008001f72                USBD_CtlSendStatus
 .text.USBD_CtlReceiveStatus
                0x0000000008001f90       0x1e CMakeFiles/bootloader.dir/__/__/__/__/__/thirdparty/STM32_USB-Host-Device_Lib_V2.2.0/Libraries/STM32_USB_Device_Library/Core/src/usbd_ioreq.c.o
                0x0000000008001f90                USBD_CtlReceiveStatus
 .text.USBD_GetRxCount
                0x0000000008001fae        0xc CMakeFiles/bootloader.dir/__/__/__/__/__/thirdparty/STM32_USB-Host-Device_Lib_V2.2.0/Libraries/STM32_USB_Device_Library/Core/src/usbd_ioreq.c.o
                0x0000000008001fae                USBD_GetRxCount
 .text.USBD_CtlError.constprop.0
                0x0000000008001fba       0x1c CMakeFiles/bootloader.dir/__/__/__/__/__/thirdparty/STM32_USB-Host-Device_Lib_V2.2.0/Libraries/STM32_USB_Device_Library/Core/src/usbd_req.c.o
 *fill*         0x0000000008001fd6        0x2 
 .text.USBD_StdDevReq
                0x0000000008001fd8      0x218 CMakeFiles/bootloader.dir/__/__/__/__/__/thirdparty/STM32_USB-Host-Device_Lib_V2.2.0/Libraries/STM32_USB_Device_Library/Core/src/usbd_req.c.o
                0x0000000008001fd8                USBD_StdDevReq
 .text.USBD_StdItfReq
                0x00000000080021f0       0x30 CMakeFiles/bootloader.dir/__/__/__/__/__/thirdparty/STM32_USB-Host-Device_Lib_V2.2.0/Libraries/STM32_USB_Device_Library/Core/src/usbd_req.c.o
                0x00000000080021f0                USBD_StdItfReq
 .text.USBD_StdEPReq
                0x0000000008002220       0xd8 CMakeFiles/bootloader.dir/__/__/__/__/__/thirdparty/STM32_USB-Host-Device_Lib_V2.2.0/Libraries/STM32_USB_Device_Library/Core/src/usbd_req.c.o
                0x0000000008002220                USBD_StdEPReq
 .text.USBD_ParseSetupRequest
                0x00000000080022f8       0x44 CMakeFiles/bootloader.dir/__/__/__/__/__/thirdparty/STM32_USB-Host-Device_Lib_V2.2.0/Libraries/STM32_USB_Device_Library/Core/src/usbd_req.c.o
                0x00000000080022f8                USBD_ParseSetupRequest
 .text.USBD_CtlError
                0x000000000800233c       0x1c CMakeFiles/bootloader.dir/__/__/__/__/__/thirdparty/STM32_USB-Host-Device_Lib_V2.2.0/Libraries/STM32_USB_Device_Library/Core/src/usbd_req.c.o
                0x000000000800233c                USBD_CtlError
 .text.USBD_GetString
                0x0000000008002358       0x38 CMakeFiles/bootloader.dir/__/__/__/__/__/thirdparty/STM32_USB-Host-Device_Lib_V2.2.0/Libraries/STM32_USB_Device_Library/Core/src/usbd_req.c.o
                0x0000000008002358                USBD_GetString
 .text.SCSI_SenseCode.constprop.0
                0x0000000008002390       0x2c CMakeFiles/bootloader.dir/__/__/__/__/__/thirdparty/STM32_USB-Host-Device_Lib_V2.2.0/Libraries/STM32_USB_Device_Library/Class/msc/src/usbd_msc_scsi.c.o
 .text.SCSI_CheckAddressRange
                0x00000000080023bc       0x40 CMakeFiles/bootloader.dir/__/__/__/__/__/thirdparty/STM32_USB-Host-Device_Lib_V2.2.0/Libraries/STM32_USB_Device_Library/Class/msc/src/usbd_msc_scsi.c.o
 .text.SCSI_ProcessCmd
                0x00000000080023fc      0x4c4 CMakeFiles/bootloader.dir/__/__/__/__/__/thirdparty/STM32_USB-Host-Device_Lib_V2.2.0/Libraries/STM32_USB_Device_Library/Class/msc/src/usbd_msc_scsi.c.o
                0x00000000080023fc                SCSI_ProcessCmd
 .text.SCSI_SenseCode
                0x00000000080028c0       0x2c CMakeFiles/bootloader.dir/__/__/__/__/__/thirdparty/STM32_USB-Host-Device_Lib_V2.2.0/Libraries/STM32_USB_Device_Library/Class/msc/src/usbd_msc_scsi.c.o
                0x00000000080028c0                SCSI_SenseCode
 .text.MSC_BOT_Abort
                0x00000000080028ec       0x44 CMakeFiles/bootloader.dir/__/__/__/__/__/thirdparty/STM32_USB-Host-Device_Lib_V2.2.0/Libraries/STM32_USB_Device_Library/Class/msc/src/usbd_msc_bot.c.o
 .text.MSC_BOT_Init
                0x0000000008002930       0x48 CMakeFiles/bootloader.dir/__/__/__/__/__/thirdparty/STM32_USB-Host-Device_Lib_V2.2.0/Libraries/STM32_USB_Device_Library/Class/msc/src/usbd_msc_bot.c.o
                0x0000000008002930                MSC_BOT_Init
 .text.MSC_BOT_Reset
                0x0000000008002978       0x20 CMakeFiles/bootloader.dir/__/__/__/__/__/thirdparty/STM32_USB-Host-Device_Lib_V2.2.0/Libraries/STM32_USB_Device_Library/Class/msc/src/usbd_msc_bot.c.o
                0x0000000008002978                MSC_BOT_Reset
 .text.MSC_BOT_DeInit
                0x0000000008002998        0xc CMakeFiles/bootloader.dir/__/__/__/__/__/thirdparty/STM32_USB-Host-Device_Lib_V2.2.0/Libraries/STM32_USB_Device_Library/Class/msc/src/usbd_msc_bot.c.o
                0x0000000008002998                MSC_BOT_DeInit
 .text.MSC_BOT_SendCSW
                0x00000000080029a4       0x3c CMakeFiles/bootloader.dir/__/__/__/__/__/thirdparty/STM32_USB-Host-Device_Lib_V2.2.0/Libraries/STM32_USB_Device_Library/Class/msc/src/usbd_msc_bot.c.o
                0x00000000080029a4                MSC_BOT_SendCSW
 .text.MSC_BOT_DataIn
                0x00000000080029e0       0x3c CMakeFiles/bootloader.dir/__/__/__/__/__/thirdparty/STM32_USB-Host-Device_Lib_V2.2.0/Libraries/STM32_USB_Device_Library/Class/msc/src/usbd_msc_bot.c.o
                0x00000000080029e0                MSC_BOT_DataIn
 .text.MSC_BOT_DataOut
                0x0000000008002a1c       0xdc CMakeFiles/bootloader.dir/__/__/__/__/__/thirdparty/STM32_USB-Host-Device_Lib_V2.2.0/Libraries/STM32_USB_Device_Library/Class/msc/src/usbd_msc_bot.c.o
                0x0000000008002a1c                MSC_BOT_DataOut
 .text.MSC_BOT_CplClrFeature
                0x0000000008002af8       0x2c CMakeFiles/bootloader.dir/__/__/__/__/__/thirdparty/STM32_USB-Host-Device_Lib_V2.2.0/Libraries/STM32_USB_Device_Library/Class/msc/src/usbd_msc_bot.c.o
                0x0000000008002af8                MSC_BOT_CplClrFeature
 .text.USBD_MSC_GetCfgDesc
                0x0000000008002b24        0xc CMakeFiles/bootloader.dir/__/__/__/__/__/thirdparty/STM32_USB-Host-Device_Lib_V2.2.0/Libraries/STM32_USB_Device_Library/Class/msc/src/usbd_msc_core.c.o
                0x0000000008002b24                USBD_MSC_GetCfgDesc
 .text.USBD_MSC_DeInit
                0x0000000008002b30       0x1c CMakeFiles/bootloader.dir/__/__/__/__/__/thirdparty/STM32_USB-Host-Device_Lib_V2.2.0/Libraries/STM32_USB_Device_Library/Class/msc/src/usbd_msc_core.c.o
                0x0000000008002b30                USBD_MSC_DeInit
 .text.USBD_MSC_Init
                0x0000000008002b4c       0x2a CMakeFiles/bootloader.dir/__/__/__/__/__/thirdparty/STM32_USB-Host-Device_Lib_V2.2.0/Libraries/STM32_USB_Device_Library/Class/msc/src/usbd_msc_core.c.o
                0x0000000008002b4c                USBD_MSC_Init
 *fill*         0x0000000008002b76        0x2 
 .text.USBD_MSC_Setup
                0x0000000008002b78       0xbc CMakeFiles/bootloader.dir/__/__/__/__/__/thirdparty/STM32_USB-Host-Device_Lib_V2.2.0/Libraries/STM32_USB_Device_Library/Class/msc/src/usbd_msc_core.c.o
                0x0000000008002b78                USBD_MSC_Setup
 .text.USBD_MSC_DataIn
                0x0000000008002c34        0xa CMakeFiles/bootloader.dir/__/__/__/__/__/thirdparty/STM32_USB-Host-Device_Lib_V2.2.0/Libraries/STM32_USB_Device_Library/Class/msc/src/usbd_msc_core.c.o
                0x0000000008002c34                USBD_MSC_DataIn
 .text.USBD_MSC_DataOut
                0x0000000008002c3e        0xa CMakeFiles/bootloader.dir/__/__/__/__/__/thirdparty/STM32_USB-Host-Device_Lib_V2.2.0/Libraries/STM32_USB_Device_Library/Class/msc/src/usbd_msc_core.c.o
                0x0000000008002c3e                USBD_MSC_DataOut
 .text.ld_dword
                0x0000000008002c48       0x10 CMakeFiles/bootloader.dir/__/__/__/__/__/thirdparty/FatFs/ff.c.o
 .text.clust2sect
                0x0000000008002c58       0x16 CMakeFiles/bootloader.dir/__/__/__/__/__/thirdparty/FatFs/ff.c.o
 .text.get_ldnumber
                0x0000000008002c6e       0x30 CMakeFiles/bootloader.dir/__/__/__/__/__/thirdparty/FatFs/ff.c.o
 .text.validate
                0x0000000008002c9e       0x34 CMakeFiles/bootloader.dir/__/__/__/__/__/thirdparty/FatFs/ff.c.o
 .text.ld_clust.isra.0
                0x0000000008002cd2       0x1c CMakeFiles/bootloader.dir/__/__/__/__/__/thirdparty/FatFs/ff.c.o
 .text.move_window
                0x0000000008002cee       0x34 CMakeFiles/bootloader.dir/__/__/__/__/__/thirdparty/FatFs/ff.c.o
 *fill*         0x0000000008002d22        0x2 
 .text.check_fs
                0x0000000008002d24       0x7c CMakeFiles/bootloader.dir/__/__/__/__/__/thirdparty/FatFs/ff.c.o
 .text.find_volume.isra.0
                0x0000000008002da0      0x210 CMakeFiles/bootloader.dir/__/__/__/__/__/thirdparty/FatFs/ff.c.o
 .text.get_fat.isra.0
                0x0000000008002fb0       0xb4 CMakeFiles/bootloader.dir/__/__/__/__/__/thirdparty/FatFs/ff.c.o
 .text.dir_sdi  0x0000000008003064       0x78 CMakeFiles/bootloader.dir/__/__/__/__/__/thirdparty/FatFs/ff.c.o
 .text.dir_next.isra.0
                0x00000000080030dc       0x70 CMakeFiles/bootloader.dir/__/__/__/__/__/thirdparty/FatFs/ff.c.o
 .text.get_fileinfo
                0x000000000800314c       0xe8 CMakeFiles/bootloader.dir/__/__/__/__/__/thirdparty/FatFs/ff.c.o
 .text.dir_read.constprop.0
                0x0000000008003234      0x11c CMakeFiles/bootloader.dir/__/__/__/__/__/thirdparty/FatFs/ff.c.o
 .text.follow_path
                0x0000000008003350      0x430 CMakeFiles/bootloader.dir/__/__/__/__/__/thirdparty/FatFs/ff.c.o
 .text.f_mount  0x0000000008003780       0x4c CMakeFiles/bootloader.dir/__/__/__/__/__/thirdparty/FatFs/ff.c.o
                0x0000000008003780                f_mount
 .text.f_open   0x00000000080037cc       0x82 CMakeFiles/bootloader.dir/__/__/__/__/__/thirdparty/FatFs/ff.c.o
                0x00000000080037cc                f_open
 .text.f_read   0x000000000800384e      0x120 CMakeFiles/bootloader.dir/__/__/__/__/__/thirdparty/FatFs/ff.c.o
                0x000000000800384e                f_read
 .text.f_close  0x000000000800396e       0x12 CMakeFiles/bootloader.dir/__/__/__/__/__/thirdparty/FatFs/ff.c.o
                0x000000000800396e                f_close
 .text.f_chdir  0x0000000008003980       0x60 CMakeFiles/bootloader.dir/__/__/__/__/__/thirdparty/FatFs/ff.c.o
                0x0000000008003980                f_chdir
 .text.f_lseek  0x00000000080039e0       0xca CMakeFiles/bootloader.dir/__/__/__/__/__/thirdparty/FatFs/ff.c.o
                0x00000000080039e0                f_lseek
 .text.f_opendir
                0x0000000008003aaa       0x70 CMakeFiles/bootloader.dir/__/__/__/__/__/thirdparty/FatFs/ff.c.o
                0x0000000008003aaa                f_opendir
 .text.f_readdir
                0x0000000008003b1a       0x4a CMakeFiles/bootloader.dir/__/__/__/__/__/thirdparty/FatFs/ff.c.o
                0x0000000008003b1a                f_readdir
 .text.ff_convert
                0x0000000008003b64       0x3c CMakeFiles/bootloader.dir/__/__/__/__/__/thirdparty/FatFs/option/ccsbcs.c.o
                0x0000000008003b64                ff_convert
 .text.ff_wtoupper
                0x0000000008003ba0       0x84 CMakeFiles/bootloader.dir/__/__/__/__/__/thirdparty/FatFs/option/ccsbcs.c.o
                0x0000000008003ba0                ff_wtoupper
 .text._Z15lcdWriteCommandh
                0x0000000008003c24       0x3c CMakeFiles/bootloader.dir/__/__/__/__/taranis/lcd_driver_spi.cpp.o
                0x0000000008003c24                lcdWriteCommand(unsigned char)
 .text._Z15lcdHardwareInitv
                0x0000000008003c60       0xd4 CMakeFiles/bootloader.dir/__/__/__/__/taranis/lcd_driver_spi.cpp.o
                0x0000000008003c60                lcdHardwareInit()
 .text._Z14lcdRefreshWaitv
                0x0000000008003d34       0x10 CMakeFiles/bootloader.dir/__/__/__/__/taranis/lcd_driver_spi.cpp.o
                0x0000000008003d34                lcdRefreshWait()
 .text.DMA1_Stream7_IRQHandler
                0x0000000008003d44       0x54 CMakeFiles/bootloader.dir/__/__/__/__/taranis/lcd_driver_spi.cpp.o
                0x0000000008003d44                DMA1_Stream7_IRQHandler
 .text._Z6lcdOffv
                0x0000000008003d98       0x20 CMakeFiles/bootloader.dir/__/__/__/__/taranis/lcd_driver_spi.cpp.o
                0x0000000008003d98                lcdOff()
 .text._Z8lcdResetv
                0x0000000008003db8       0x18 CMakeFiles/bootloader.dir/__/__/__/__/taranis/lcd_driver_spi.cpp.o
                0x0000000008003db8                lcdReset()
 .text._Z7lcdInitv
                0x0000000008003dd0        0xe CMakeFiles/bootloader.dir/__/__/__/__/taranis/lcd_driver_spi.cpp.o
                0x0000000008003dd0                lcdInit()
 *fill*         0x0000000008003dde        0x2 
 .text._Z13lcdSetRefVolth
                0x0000000008003de0       0x28 CMakeFiles/bootloader.dir/__/__/__/__/taranis/lcd_driver_spi.cpp.o
                0x0000000008003de0                lcdSetRefVolt(unsigned char)
 .text._Z8lcdStartv
                0x0000000008003e08       0x4e CMakeFiles/bootloader.dir/__/__/__/__/taranis/lcd_driver_spi.cpp.o
                0x0000000008003e08                lcdStart()
 *fill*         0x0000000008003e56        0x2 
 .text._Z13lcdInitFinishv
                0x0000000008003e58       0x38 CMakeFiles/bootloader.dir/__/__/__/__/taranis/lcd_driver_spi.cpp.o
                0x0000000008003e58                lcdInitFinish()
 .text._Z10lcdRefreshb
                0x0000000008003e90       0xac CMakeFiles/bootloader.dir/__/__/__/__/taranis/lcd_driver_spi.cpp.o
                0x0000000008003e90                lcdRefresh(bool)
 .text.backlightInit
                0x0000000008003f3c       0x4c CMakeFiles/bootloader.dir/__/__/__/__/taranis/backlight_driver.cpp.o
                0x0000000008003f3c                backlightInit
 .text.backlightEnable
                0x0000000008003f88       0x10 CMakeFiles/bootloader.dir/__/__/__/__/taranis/backlight_driver.cpp.o
                0x0000000008003f88                backlightEnable
 .text.backlightDisable
                0x0000000008003f98        0xc CMakeFiles/bootloader.dir/__/__/__/__/taranis/backlight_driver.cpp.o
                0x0000000008003f98                backlightDisable
 .text._Z8readKeysv
                0x0000000008003fa4       0x38 CMakeFiles/bootloader.dir/__/__/__/__/taranis/keys_driver.cpp.o
                0x0000000008003fa4                readKeys()
 .text._Z9readTrimsv
                0x0000000008003fdc       0x64 CMakeFiles/bootloader.dir/__/__/__/__/taranis/keys_driver.cpp.o
                0x0000000008003fdc                readTrims()
 .text._Z8keysInitv
                0x0000000008004040       0x54 CMakeFiles/bootloader.dir/__/__/__/__/taranis/keys_driver.cpp.o
                0x0000000008004040                keysInit()
 .text._ZL8power_onv
                0x0000000008004094       0xd0 CMakeFiles/bootloader.dir/__/__/__/__/taranis/diskio.cpp.o
 .text._ZL12stm32_spi_rwh
                0x0000000008004164       0x24 CMakeFiles/bootloader.dir/__/__/__/__/taranis/diskio.cpp.o
 .text._ZL8rcvr_spiv
                0x0000000008004188        0x6 CMakeFiles/bootloader.dir/__/__/__/__/taranis/diskio.cpp.o
 *fill*         0x000000000800418e        0x2 
 .text._ZL10wait_readyv
                0x0000000008004190       0x20 CMakeFiles/bootloader.dir/__/__/__/__/taranis/diskio.cpp.o
 .text._ZL11release_spiv
                0x00000000080041b0       0x18 CMakeFiles/bootloader.dir/__/__/__/__/taranis/diskio.cpp.o
 .text._ZL9spi_resetv
                0x00000000080041c8       0x12 CMakeFiles/bootloader.dir/__/__/__/__/taranis/diskio.cpp.o
 *fill*         0x00000000080041da        0x2 
 .text._ZL8send_cmdhm
                0x00000000080041dc       0x8c CMakeFiles/bootloader.dir/__/__/__/__/taranis/diskio.cpp.o
 .text._ZL9power_offv
                0x0000000008004268       0x60 CMakeFiles/bootloader.dir/__/__/__/__/taranis/diskio.cpp.o
 .text._ZL14rcvr_datablockPhj
                0x00000000080042c8       0x68 CMakeFiles/bootloader.dir/__/__/__/__/taranis/diskio.cpp.o
 .text._ZL14xmit_datablockPKhh
                0x0000000008004330       0x70 CMakeFiles/bootloader.dir/__/__/__/__/taranis/diskio.cpp.o
 .text.disk_initialize
                0x00000000080043a0      0x148 CMakeFiles/bootloader.dir/__/__/__/__/taranis/diskio.cpp.o
                0x00000000080043a0                disk_initialize
 .text.disk_status
                0x00000000080044e8       0x14 CMakeFiles/bootloader.dir/__/__/__/__/taranis/diskio.cpp.o
                0x00000000080044e8                disk_status
 .text._Z14SD_ReadSectorsPhmm
                0x00000000080044fc       0x80 CMakeFiles/bootloader.dir/__/__/__/__/taranis/diskio.cpp.o
                0x00000000080044fc                SD_ReadSectors(unsigned char*, unsigned long, unsigned long)
 .text.disk_read
                0x000000000800457c       0x30 CMakeFiles/bootloader.dir/__/__/__/__/taranis/diskio.cpp.o
                0x000000000800457c                disk_read
 .text._Z15SD_WriteSectorsPKhmm
                0x00000000080045ac       0x94 CMakeFiles/bootloader.dir/__/__/__/__/taranis/diskio.cpp.o
                0x00000000080045ac                SD_WriteSectors(unsigned char const*, unsigned long, unsigned long)
 .text.disk_write
                0x0000000008004640       0x38 CMakeFiles/bootloader.dir/__/__/__/__/taranis/diskio.cpp.o
                0x0000000008004640                disk_write
 .text.disk_ioctl
                0x0000000008004678      0x204 CMakeFiles/bootloader.dir/__/__/__/__/taranis/diskio.cpp.o
                0x0000000008004678                disk_ioctl
 .text._Z10sdPoll10msv
                0x000000000800487c       0x68 CMakeFiles/bootloader.dir/__/__/__/__/taranis/diskio.cpp.o
                0x000000000800487c                sdPoll10ms()
 .text._Z6sdInitv
                0x00000000080048e4       0x28 CMakeFiles/bootloader.dir/__/__/__/__/taranis/diskio.cpp.o
                0x00000000080048e4                sdInit()
 .text._Z8boardOffv
                0x000000000800490c       0x54 CMakeFiles/bootloader.dir/__/__/__/__/taranis/board.cpp.o
                0x000000000800490c                boardOff()
 .text.pwrInit  0x0000000008004960       0x98 CMakeFiles/bootloader.dir/__/pwr_driver.cpp.o
                0x0000000008004960                pwrInit
 .text.pwrOn    0x00000000080049f8       0x28 CMakeFiles/bootloader.dir/__/pwr_driver.cpp.o
                0x00000000080049f8                pwrOn
 .text.pwrOff   0x0000000008004a20        0xc CMakeFiles/bootloader.dir/__/pwr_driver.cpp.o
                0x0000000008004a20                pwrOff
 .text.pwrPressed
                0x0000000008004a2c       0x18 CMakeFiles/bootloader.dir/__/pwr_driver.cpp.o
                0x0000000008004a2c                pwrPressed
 .text.pwrResetHandler
                0x0000000008004a44       0x20 CMakeFiles/bootloader.dir/__/pwr_driver.cpp.o
                0x0000000008004a44                pwrResetHandler
 .text._Z20bootloaderInitScreenv
                0x0000000008004a64        0x2 CMakeFiles/bootloader.dir/__/__/__/__/taranis/bootloader/boot_menu.cpp.o
                0x0000000008004a64                bootloaderInitScreen()
 .text._Z22bootloaderDrawFilenamePKchb
                0x0000000008004a66       0x20 CMakeFiles/bootloader.dir/__/__/__/__/taranis/bootloader/boot_menu.cpp.o
                0x0000000008004a66                bootloaderDrawFilename(char const*, unsigned char, bool)
 *fill*         0x0000000008004a86        0x2 
 .text._Z20bootloaderDrawScreen15BootloaderStateiPKc
                0x0000000008004a88      0x1dc CMakeFiles/bootloader.dir/__/__/__/__/taranis/bootloader/boot_menu.cpp.o
                0x0000000008004a88                bootloaderDrawScreen(BootloaderState, int, char const*)
 .text.USBD_USR_Init
                0x0000000008004c64        0x2 CMakeFiles/bootloader.dir/__/usbd_usr.cpp.o
                0x0000000008004c64                USBD_USR_Init
 .text.USBD_USR_DeviceReset
                0x0000000008004c66        0x2 CMakeFiles/bootloader.dir/__/usbd_usr.cpp.o
                0x0000000008004c66                USBD_USR_DeviceReset
 .text.USBD_USR_DeviceDisconnected
                0x0000000008004c68        0x2 CMakeFiles/bootloader.dir/__/usbd_usr.cpp.o
                0x0000000008004c68                USBD_USR_DeviceDisconnected
 .text.USBD_USR_DeviceConfigured
                0x0000000008004c6a        0x2 CMakeFiles/bootloader.dir/__/usbd_usr.cpp.o
                0x0000000008004c6a                USBD_USR_DeviceConfigured
 .text.USBD_USR_DeviceSuspended
                0x0000000008004c6c        0x2 CMakeFiles/bootloader.dir/__/usbd_usr.cpp.o
                0x0000000008004c6c                USBD_USR_DeviceSuspended
 .text.USBD_USR_DeviceResumed
                0x0000000008004c6e        0x2 CMakeFiles/bootloader.dir/__/usbd_usr.cpp.o
                0x0000000008004c6e                USBD_USR_DeviceResumed
 .text.USBD_USR_DeviceConnected
                0x0000000008004c70        0x2 CMakeFiles/bootloader.dir/__/usbd_usr.cpp.o
                0x0000000008004c70                USBD_USR_DeviceConnected
 .text.STORAGE_IsWriteProtected
                0x0000000008004c72        0x4 CMakeFiles/bootloader.dir/__/usbd_storage_msd.cpp.o
                0x0000000008004c72                STORAGE_IsWriteProtected
 .text.STORAGE_GetMaxLun
                0x0000000008004c76        0x4 CMakeFiles/bootloader.dir/__/usbd_storage_msd.cpp.o
                0x0000000008004c76                STORAGE_GetMaxLun
 .text._ZL9writeBytePhtih
                0x0000000008004c7a       0x1a CMakeFiles/bootloader.dir/__/usbd_storage_msd.cpp.o
 .text._ZL11pushClusterPhtRtRit
                0x0000000008004c94       0x4e CMakeFiles/bootloader.dir/__/usbd_storage_msd.cpp.o
 *fill*         0x0000000008004ce2        0x2 
 .text.STORAGE_Init
                0x0000000008004ce4       0x18 CMakeFiles/bootloader.dir/__/usbd_storage_msd.cpp.o
                0x0000000008004ce4                STORAGE_Init
 .text.STORAGE_GetCapacity
                0x0000000008004cfc       0x50 CMakeFiles/bootloader.dir/__/usbd_storage_msd.cpp.o
                0x0000000008004cfc                STORAGE_GetCapacity
 .text.STORAGE_IsReady
                0x0000000008004d4c       0x30 CMakeFiles/bootloader.dir/__/usbd_storage_msd.cpp.o
                0x0000000008004d4c                STORAGE_IsReady
 .text._Z12usbPluggedInv
                0x0000000008004d7c       0x10 CMakeFiles/bootloader.dir/__/usbd_storage_msd.cpp.o
                0x0000000008004d7c                usbPluggedIn()
 .text.fat12Read
                0x0000000008004d8c      0x168 CMakeFiles/bootloader.dir/__/usbd_storage_msd.cpp.o
                0x0000000008004d8c                fat12Read
 .text.STORAGE_Read
                0x0000000008004ef4       0x26 CMakeFiles/bootloader.dir/__/usbd_storage_msd.cpp.o
                0x0000000008004ef4                STORAGE_Read
 *fill*         0x0000000008004f1a        0x2 
 .text.fat12Write
                0x0000000008004f1c      0x110 CMakeFiles/bootloader.dir/__/usbd_storage_msd.cpp.o
                0x0000000008004f1c                fat12Write
 .text.STORAGE_Write
                0x000000000800502c       0x26 CMakeFiles/bootloader.dir/__/usbd_storage_msd.cpp.o
                0x000000000800502c                STORAGE_Write
 *fill*         0x0000000008005052        0x2 
 .text.startup._GLOBAL__sub_I_USBD_STORAGE_fops
                0x0000000008005054       0x18 CMakeFiles/bootloader.dir/__/usbd_storage_msd.cpp.o
 .text.delaysInit
                0x000000000800506c       0x24 CMakeFiles/bootloader.dir/__/delays.cpp.o
                0x000000000800506c                delaysInit
 .text.delay_us
                0x0000000008005090       0x24 CMakeFiles/bootloader.dir/__/delays.cpp.o
                0x0000000008005090                delay_us
 .text.delay_ms
                0x00000000080050b4       0x14 CMakeFiles/bootloader.dir/__/delays.cpp.o
                0x00000000080050b4                delay_ms
 .text.USBD_USR_LangIDStrDescriptor
                0x00000000080050c8       0x18 CMakeFiles/bootloader.dir/__/usbd_desc.c.o
                0x00000000080050c8                USBD_USR_LangIDStrDescriptor
 .text.USBD_USR_DeviceDescriptor
                0x00000000080050e0       0x6c CMakeFiles/bootloader.dir/__/usbd_desc.c.o
                0x00000000080050e0                USBD_USR_DeviceDescriptor
 .text.USBD_USR_ManufacturerStrDescriptor
                0x000000000800514c       0x1c CMakeFiles/bootloader.dir/__/usbd_desc.c.o
                0x000000000800514c                USBD_USR_ManufacturerStrDescriptor
 .text.USBD_USR_SerialStrDescriptor
                0x0000000008005168       0x1c CMakeFiles/bootloader.dir/__/usbd_desc.c.o
                0x0000000008005168                USBD_USR_SerialStrDescriptor
 .text.USBD_USR_ProductStrDescriptor
                0x0000000008005184       0x44 CMakeFiles/bootloader.dir/__/usbd_desc.c.o
                0x0000000008005184                USBD_USR_ProductStrDescriptor
 .text.USBD_USR_ConfigStrDescriptor
                0x00000000080051c8       0x44 CMakeFiles/bootloader.dir/__/usbd_desc.c.o
                0x00000000080051c8                USBD_USR_ConfigStrDescriptor
 .text.USBD_USR_InterfaceStrDescriptor
                0x000000000800520c       0x44 CMakeFiles/bootloader.dir/__/usbd_desc.c.o
                0x000000000800520c                USBD_USR_InterfaceStrDescriptor
 .text.USB_OTG_BSP_Init
                0x0000000008005250       0x64 CMakeFiles/bootloader.dir/__/usb_bsp.c.o
                0x0000000008005250                USB_OTG_BSP_Init
 .text.USB_OTG_BSP_Deinit
                0x00000000080052b4        0x2 CMakeFiles/bootloader.dir/__/usb_bsp.c.o
                0x00000000080052b4                USB_OTG_BSP_Deinit
 *fill*         0x00000000080052b6        0x2 
 .text.USB_OTG_BSP_EnableInterrupt
                0x00000000080052b8       0x14 CMakeFiles/bootloader.dir/__/usb_bsp.c.o
                0x00000000080052b8                USB_OTG_BSP_EnableInterrupt
 .text.USB_OTG_BSP_DisableInterrupt
                0x00000000080052cc       0x10 CMakeFiles/bootloader.dir/__/usb_bsp.c.o
                0x00000000080052cc                USB_OTG_BSP_DisableInterrupt
 .text.USB_OTG_BSP_uDelay
                0x00000000080052dc        0x6 CMakeFiles/bootloader.dir/__/usb_bsp.c.o
                0x00000000080052dc                USB_OTG_BSP_uDelay
 .text.USB_OTG_BSP_mDelay
                0x00000000080052e2        0x4 CMakeFiles/bootloader.dir/__/usb_bsp.c.o
                0x00000000080052e2                USB_OTG_BSP_mDelay
 *fill*         0x00000000080052e6        0x2 
 .text.getSelectedUsbMode
                0x00000000080052e8        0xc CMakeFiles/bootloader.dir/__/usb_driver.cpp.o
                0x00000000080052e8                getSelectedUsbMode
 .text.usbPlugged
                0x00000000080052f4       0x24 CMakeFiles/bootloader.dir/__/usb_driver.cpp.o
                0x00000000080052f4                usbPlugged
 .text.OTG_FS_IRQHandler
                0x0000000008005318        0xc CMakeFiles/bootloader.dir/__/usb_driver.cpp.o
                0x0000000008005318                OTG_FS_IRQHandler
 .text.usbInit  0x0000000008005324       0x18 CMakeFiles/bootloader.dir/__/usb_driver.cpp.o
                0x0000000008005324                usbInit
 .text.usbStart
                0x000000000800533c       0x34 CMakeFiles/bootloader.dir/__/usb_driver.cpp.o
                0x000000000800533c                usbStart
 .text.usbStop  0x0000000008005370       0x14 CMakeFiles/bootloader.dir/__/usb_driver.cpp.o
                0x0000000008005370                usbStop
 .text._Z13waitFlashIdlev
                0x0000000008005384       0x10 CMakeFiles/bootloader.dir/__/flash_driver.cpp.o
                0x0000000008005384                waitFlashIdle()
 .text._Z11unlockFlashv
                0x0000000008005394       0x18 CMakeFiles/bootloader.dir/__/flash_driver.cpp.o
                0x0000000008005394                unlockFlash()
 .text._Z9lockFlashv
                0x00000000080053ac       0x18 CMakeFiles/bootloader.dir/__/flash_driver.cpp.o
                0x00000000080053ac                lockFlash()
 .text._Z11eraseSectorm
                0x00000000080053c4       0x50 CMakeFiles/bootloader.dir/__/flash_driver.cpp.o
                0x00000000080053c4                eraseSector(unsigned long)
 .text._Z10flashWritePmPKm
                0x0000000008005414      0x124 CMakeFiles/bootloader.dir/__/flash_driver.cpp.o
                0x0000000008005414                flashWrite(unsigned long*, unsigned long const*)
 .text._Z15isFirmwareStartPKh
                0x0000000008005538       0x30 CMakeFiles/bootloader.dir/__/flash_driver.cpp.o
                0x0000000008005538                isFirmwareStart(unsigned char const*)
 .text._init    0x0000000008005568        0x2 CMakeFiles/bootloader.dir/init.c.o
                0x0000000008005568                _init
 .text._fini    0x000000000800556a        0x2 CMakeFiles/bootloader.dir/init.c.o
                0x000000000800556a                _fini
 .text._Z13interrupt10msv
                0x000000000800556c       0x70 CMakeFiles/bootloader.dir/boot.cpp.o
                0x000000000800556c                interrupt10ms()
 .text._Z13init10msTimerv
                0x00000000080055dc       0x34 CMakeFiles/bootloader.dir/boot.cpp.o
                0x00000000080055dc                init10msTimer()
 .text.TIM8_TRG_COM_TIM14_IRQHandler
                0x0000000008005610       0x18 CMakeFiles/bootloader.dir/boot.cpp.o
                0x0000000008005610                TIM8_TRG_COM_TIM14_IRQHandler
 .text._Z18isValidBufferStartPKh
                0x0000000008005628       0x40 CMakeFiles/bootloader.dir/boot.cpp.o
                0x0000000008005628                isValidBufferStart(unsigned char const*)
 .text._Z14checkFlashFilej13FlashCheckRes
                0x0000000008005668       0x34 CMakeFiles/bootloader.dir/boot.cpp.o
                0x0000000008005668                checkFlashFile(unsigned int, FlashCheckRes)
 .text._Z13menuFlashFilemt
                0x000000000800569c       0x60 CMakeFiles/bootloader.dir/boot.cpp.o
                0x000000000800569c                menuFlashFile(unsigned long, unsigned short)
 .text._Z15flashWriteBlockv
                0x00000000080056fc       0x44 CMakeFiles/bootloader.dir/boot.cpp.o
                0x00000000080056fc                flashWriteBlock()
 .text._Z16writeEepromBlockv
                0x0000000008005740       0x28 CMakeFiles/bootloader.dir/boot.cpp.o
                0x0000000008005740                writeEepromBlock()
 .text.startup.main
                0x0000000008005768      0x3f8 CMakeFiles/bootloader.dir/boot.cpp.o
                0x0000000008005768                main
 .text._ZL15findNextBinFileP7FILINFO
                0x0000000008005b60       0x58 CMakeFiles/bootloader.dir/bin_files.cpp.o
 .text._Z10openBinDir10MemoryType
                0x0000000008005bb8       0x34 CMakeFiles/bootloader.dir/bin_files.cpp.o
                0x0000000008005bb8                openBinDir(MemoryType)
 .text._Z13fetchBinFilesj
                0x0000000008005bec       0x74 CMakeFiles/bootloader.dir/bin_files.cpp.o
                0x0000000008005bec                fetchBinFiles(unsigned int)
 .text._Z11openBinFile10MemoryTypej
                0x0000000008005c60       0x90 CMakeFiles/bootloader.dir/bin_files.cpp.o
                0x0000000008005c60                openBinFile(MemoryType, unsigned int)
 .text._Z11readBinFilev
                0x0000000008005cf0       0x20 CMakeFiles/bootloader.dir/bin_files.cpp.o
                0x0000000008005cf0                readBinFile()
 .text._Z12closeBinFilev
                0x0000000008005d10        0xc CMakeFiles/bootloader.dir/bin_files.cpp.o
                0x0000000008005d10                closeBinFile()
 .text._Z8lcdClearv
                0x0000000008005d1c       0x10 CMakeFiles/bootloader.dir/__/__/__/__/__/gui/common/stdlcd/lcd_1bit.cpp.o
                0x0000000008005d1c                lcdClear()
 .text._Z15getPatternWidthPK11PatternData
                0x0000000008005d2c       0x36 CMakeFiles/bootloader.dir/__/__/__/__/__/gui/common/stdlcd/lcd_1bit.cpp.o
                0x0000000008005d2c                getPatternWidth(PatternData const*)
 *fill*         0x0000000008005d62        0x2 
 .text._Z12getCharWidthcm
                0x0000000008005d64       0x28 CMakeFiles/bootloader.dir/__/__/__/__/__/gui/common/stdlcd/lcd_1bit.cpp.o
                0x0000000008005d64                getCharWidth(char, unsigned long)
 .text._Z12getTextWidthPKchm
                0x0000000008005d8c       0x32 CMakeFiles/bootloader.dir/__/__/__/__/__/gui/common/stdlcd/lcd_1bit.cpp.o
                0x0000000008005d8c                getTextWidth(char const*, unsigned char, unsigned long)
 .text._Z12lcdMaskPointPhhm
                0x0000000008005dbe       0x1a CMakeFiles/bootloader.dir/__/__/__/__/__/gui/common/stdlcd/lcd_1bit.cpp.o
                0x0000000008005dbe                lcdMaskPoint(unsigned char*, unsigned char, unsigned long)
 .text._Z19lcdDrawVerticalLineiiihm
                0x0000000008005dd8       0xa4 CMakeFiles/bootloader.dir/__/__/__/__/__/gui/common/stdlcd/lcd_1bit.cpp.o
                0x0000000008005dd8                lcdDrawVerticalLine(int, int, int, unsigned char, unsigned long)
 .text._Z12lcdDrawPointiim
                0x0000000008005e7c       0x3c CMakeFiles/bootloader.dir/__/__/__/__/__/gui/common/stdlcd/lcd_1bit.cpp.o
                0x0000000008005e7c                lcdDrawPoint(int, int, unsigned long)
 .text._Z13lcdPutPatterniiPKhhhm
                0x0000000008005eb8      0x14c CMakeFiles/bootloader.dir/__/__/__/__/__/gui/common/stdlcd/lcd_1bit.cpp.o
                0x0000000008005eb8                lcdPutPattern(int, int, unsigned char const*, unsigned char, unsigned char, unsigned long)
 .text._Z11lcdDrawChariihm
                0x0000000008006004       0x2c CMakeFiles/bootloader.dir/__/__/__/__/__/gui/common/stdlcd/lcd_1bit.cpp.o
                0x0000000008006004                lcdDrawChar(int, int, unsigned char, unsigned long)
 .text._Z16lcdDrawSizedTextiiPKchm
                0x0000000008006030       0xd4 CMakeFiles/bootloader.dir/__/__/__/__/__/gui/common/stdlcd/lcd_1bit.cpp.o
                0x0000000008006030                lcdDrawSizedText(int, int, char const*, unsigned char, unsigned long)
 .text._Z11lcdDrawTextiiPKcm
                0x0000000008006104       0x10 CMakeFiles/bootloader.dir/__/__/__/__/__/gui/common/stdlcd/lcd_1bit.cpp.o
                0x0000000008006104                lcdDrawText(int, int, char const*, unsigned long)
 .text._Z11lcdDrawTextiiPKc
                0x0000000008006114        0x6 CMakeFiles/bootloader.dir/__/__/__/__/__/gui/common/stdlcd/lcd_1bit.cpp.o
                0x0000000008006114                lcdDrawText(int, int, char const*)
 .text._Z22lcdDrawTextAlignedLeftiPKc
                0x000000000800611a        0xa CMakeFiles/bootloader.dir/__/__/__/__/__/gui/common/stdlcd/lcd_1bit.cpp.o
                0x000000000800611a                lcdDrawTextAlignedLeft(int, char const*)
 .text._Z13lcdInvertLinea
                0x0000000008006124       0x24 CMakeFiles/bootloader.dir/__/__/__/__/__/gui/common/stdlcd/lcd_1bit.cpp.o
                0x0000000008006124                lcdInvertLine(signed char)
 .text._Z21lcdDrawHorizontalLineiiihm
                0x0000000008006148       0x60 CMakeFiles/bootloader.dir/__/__/__/__/__/gui/common/stdlcd/lcd_1bit.cpp.o
                0x0000000008006148                lcdDrawHorizontalLine(int, int, int, unsigned char, unsigned long)
 .text._Z26lcdDrawSolidHorizontalLineiiim
                0x00000000080061a8       0x10 CMakeFiles/bootloader.dir/__/__/__/__/__/gui/common/stdlcd/lcd_1bit.cpp.o
                0x00000000080061a8                lcdDrawSolidHorizontalLine(int, int, int, unsigned long)
 .text._Z11lcdDrawRectiiiihm
                0x00000000080061b8       0x64 CMakeFiles/bootloader.dir/__/__/__/__/__/gui/common/stdlcd/lcd_1bit.cpp.o
                0x00000000080061b8                lcdDrawRect(int, int, int, int, unsigned char, unsigned long)
 .text._Z17rotaryEncoderInitv
                0x000000000800621c       0xb0 CMakeFiles/bootloader.dir/__/rotary_encoder_driver.cpp.o
                0x000000000800621c                rotaryEncoderInit()
 .text._Z18rotaryEncoderCheckv
                0x00000000080062cc       0x4c CMakeFiles/bootloader.dir/__/rotary_encoder_driver.cpp.o
                0x00000000080062cc                rotaryEncoderCheck()
 .text.EXTI9_5_IRQHandler
                0x0000000008006318       0x24 CMakeFiles/bootloader.dir/__/rotary_encoder_driver.cpp.o
                0x0000000008006318                EXTI9_5_IRQHandler
 .text.EXTI15_10_IRQHandler
                0x000000000800633c       0x24 CMakeFiles/bootloader.dir/__/rotary_encoder_driver.cpp.o
                0x000000000800633c                EXTI15_10_IRQHandler
 .text.TIM5_IRQHandler
                0x0000000008006360       0x1c CMakeFiles/bootloader.dir/__/rotary_encoder_driver.cpp.o
                0x0000000008006360                TIM5_IRQHandler
 .text._Z13bluetoothInitmb
                0x000000000800637c       0x30 CMakeFiles/bootloader.dir/__/bluetooth_driver.cpp.o
                0x000000000800637c                bluetoothInit(unsigned long, bool)
 .text._Z7i2cInitv
                0x00000000080063ac       0x90 CMakeFiles/bootloader.dir/__/__/__/__/taranis/i2c_driver.cpp.o
                0x00000000080063ac                i2cInit()
 .text._Z13I2C_WaitEventm
                0x000000000800643c       0x24 CMakeFiles/bootloader.dir/__/__/__/__/taranis/i2c_driver.cpp.o
                0x000000000800643c                I2C_WaitEvent(unsigned long)
 .text._Z20I2C_WaitEventClearedm
                0x0000000008006460       0x24 CMakeFiles/bootloader.dir/__/__/__/__/taranis/i2c_driver.cpp.o
                0x0000000008006460                I2C_WaitEventCleared(unsigned long)
 .text._Z16I2C_EE_ReadBlockPhtt
                0x0000000008006484       0xf0 CMakeFiles/bootloader.dir/__/__/__/__/taranis/i2c_driver.cpp.o
                0x0000000008006484                I2C_EE_ReadBlock(unsigned char*, unsigned short, unsigned short)
 .text._Z15eepromReadBlockPhjj
                0x0000000008006574       0x1c CMakeFiles/bootloader.dir/__/__/__/__/taranis/i2c_driver.cpp.o
                0x0000000008006574                eepromReadBlock(unsigned char*, unsigned int, unsigned int)
 .text._Z16I2C_EE_PageWritePhth
                0x0000000008006590       0xb0 CMakeFiles/bootloader.dir/__/__/__/__/taranis/i2c_driver.cpp.o
                0x0000000008006590                I2C_EE_PageWrite(unsigned char*, unsigned short, unsigned char)
 .text._Z15eepromPageWritePhth
                0x0000000008006640       0x1c CMakeFiles/bootloader.dir/__/__/__/__/taranis/i2c_driver.cpp.o
                0x0000000008006640                eepromPageWrite(unsigned char*, unsigned short, unsigned char)
 .text._Z29I2C_EE_WaitEepromStandbyStatev
                0x000000000800665c       0x48 CMakeFiles/bootloader.dir/__/__/__/__/taranis/i2c_driver.cpp.o
                0x000000000800665c                I2C_EE_WaitEepromStandbyState()
 .text._Z28eepromWaitEepromStandbyStatev
                0x00000000080066a4       0x10 CMakeFiles/bootloader.dir/__/__/__/__/taranis/i2c_driver.cpp.o
                0x00000000080066a4                eepromWaitEepromStandbyState()
 .text._Z16eepromWriteBlockPhjj
                0x00000000080066b4       0x3c CMakeFiles/bootloader.dir/__/__/__/__/taranis/i2c_driver.cpp.o
                0x00000000080066b4                eepromWriteBlock(unsigned char*, unsigned int, unsigned int)
 *(.rodata)
 *(.rodata*)
 .rodata.APBAHBPrescTable
                0x00000000080066f0       0x10 CMakeFiles/bootloader.dir/__/__/__/__/__/thirdparty/STM32F2xx_StdPeriph_Lib_V1.1.0/Libraries/STM32F2xx_StdPeriph_Driver/src/stm32f2xx_rcc.c.o
 .rodata.font_5x7
                0x0000000008006700      0x1e0 CMakeFiles/bootloader.dir/__/__/__/__/__/gui/128x64/fonts.cpp.o
                0x0000000008006700                font_5x7
 .rodata._Z18getFirmwareVersionPKc.str1.1
                0x00000000080068e0       0x19 CMakeFiles/bootloader.dir/__/__/__/__/__/stamp.cpp.o
 .rodata.CSWTCH.23
                0x00000000080068f9        0x4 CMakeFiles/bootloader.dir/__/__/__/__/__/thirdparty/STM32_USB-Host-Device_Lib_V2.2.0/Libraries/STM32_USB_OTG_Driver/src/usb_core.c.o
 *fill*         0x00000000080068fd        0x3 
 .rodata.USBD_DCD_INT_cb
                0x0000000008006900       0x2c CMakeFiles/bootloader.dir/__/__/__/__/__/thirdparty/STM32_USB-Host-Device_Lib_V2.2.0/Libraries/STM32_USB_Device_Library/Core/src/usbd_core.c.o
                0x0000000008006900                USBD_DCD_INT_cb
 .rodata.USBD_DCD_INT_fops
                0x000000000800692c        0x4 CMakeFiles/bootloader.dir/__/__/__/__/__/thirdparty/STM32_USB-Host-Device_Lib_V2.2.0/Libraries/STM32_USB_Device_Library/Core/src/usbd_core.c.o
                0x000000000800692c                USBD_DCD_INT_fops
 .rodata.USBD_default_cfg
                0x0000000008006930        0x4 CMakeFiles/bootloader.dir/__/__/__/__/__/thirdparty/STM32_USB-Host-Device_Lib_V2.2.0/Libraries/STM32_USB_Device_Library/Core/src/usbd_req.c.o
                0x0000000008006930                USBD_default_cfg
 .rodata.MSC_Mode_Sense10_data
                0x0000000008006934        0x8 CMakeFiles/bootloader.dir/__/__/__/__/__/thirdparty/STM32_USB-Host-Device_Lib_V2.2.0/Libraries/STM32_USB_Device_Library/Class/msc/src/usbd_msc_data.c.o
                0x0000000008006934                MSC_Mode_Sense10_data
 .rodata.MSC_Mode_Sense6_data
                0x000000000800693c        0x8 CMakeFiles/bootloader.dir/__/__/__/__/__/thirdparty/STM32_USB-Host-Device_Lib_V2.2.0/Libraries/STM32_USB_Device_Library/Class/msc/src/usbd_msc_data.c.o
                0x000000000800693c                MSC_Mode_Sense6_data
 .rodata.MSC_Page00_Inquiry_Data
                0x0000000008006944        0x7 CMakeFiles/bootloader.dir/__/__/__/__/__/thirdparty/STM32_USB-Host-Device_Lib_V2.2.0/Libraries/STM32_USB_Device_Library/Class/msc/src/usbd_msc_data.c.o
                0x0000000008006944                MSC_Page00_Inquiry_Data
 .rodata.USBD_MSC_CfgDesc
                0x000000000800694b       0x20 CMakeFiles/bootloader.dir/__/__/__/__/__/thirdparty/STM32_USB-Host-Device_Lib_V2.2.0/Libraries/STM32_USB_Device_Library/Class/msc/src/usbd_msc_core.c.o
                0x000000000800694b                USBD_MSC_CfgDesc
 *fill*         0x000000000800696b        0x1 
 .rodata.USBD_MSC_cb
                0x000000000800696c       0x2c CMakeFiles/bootloader.dir/__/__/__/__/__/thirdparty/STM32_USB-Host-Device_Lib_V2.2.0/Libraries/STM32_USB_Device_Library/Class/msc/src/usbd_msc_core.c.o
                0x000000000800696c                USBD_MSC_cb
 .rodata.follow_path.str1.1
                0x0000000008006998       0x10 CMakeFiles/bootloader.dir/__/__/__/__/__/thirdparty/FatFs/ff.c.o
 .rodata.ExCvt  0x00000000080069a8       0x80 CMakeFiles/bootloader.dir/__/__/__/__/__/thirdparty/FatFs/ff.c.o
 .rodata.LfnOfs
                0x0000000008006a28        0xd CMakeFiles/bootloader.dir/__/__/__/__/__/thirdparty/FatFs/ff.c.o
 *fill*         0x0000000008006a35        0x1 
 .rodata.Tbl    0x0000000008006a36      0x100 CMakeFiles/bootloader.dir/__/__/__/__/__/thirdparty/FatFs/option/ccsbcs.c.o
 .rodata.cvt1.4672
                0x0000000008006b36      0x1f2 CMakeFiles/bootloader.dir/__/__/__/__/__/thirdparty/FatFs/option/ccsbcs.c.o
 .rodata.cvt2.4673
                0x0000000008006d28       0xbc CMakeFiles/bootloader.dir/__/__/__/__/__/thirdparty/FatFs/option/ccsbcs.c.o
 .rodata._Z6sdInitv.str1.1
                0x0000000008006de4        0x2 CMakeFiles/bootloader.dir/__/__/__/__/taranis/diskio.cpp.o
                                          0x3 (size before relaxing)
 .rodata._Z20bootloaderDrawScreen15BootloaderStateiPKc.str1.1
                0x0000000008006de6      0x10b CMakeFiles/bootloader.dir/__/__/__/__/taranis/bootloader/boot_menu.cpp.o
                                        0x113 (size before relaxing)
 *fill*         0x0000000008006ef1        0x3 
 .rodata.USR_cb
                0x0000000008006ef4       0x1c CMakeFiles/bootloader.dir/__/usbd_usr.cpp.o
                0x0000000008006ef4                USR_cb
 .rodata.fat12Read.str1.1
                0x0000000008006f10       0x91 CMakeFiles/bootloader.dir/__/usbd_storage_msd.cpp.o
 *fill*         0x0000000008006fa1        0x3 
 .rodata.USBD_STORAGE_fops
                0x0000000008006fa4        0x4 CMakeFiles/bootloader.dir/__/usbd_storage_msd.cpp.o
                0x0000000008006fa4                USBD_STORAGE_fops
 .rodata._ZL19STORAGE_Inquirydata
                0x0000000008006fa8       0x48 CMakeFiles/bootloader.dir/__/usbd_storage_msd.cpp.o
 .rodata._ZL20USBD_MICRO_SDIO_fops
                0x0000000008006ff0       0x20 CMakeFiles/bootloader.dir/__/usbd_storage_msd.cpp.o
 .rodata._ZL9g_FATboot
                0x0000000008007010      0x200 CMakeFiles/bootloader.dir/__/usbd_storage_msd.cpp.o
 .rodata.USBD_USR_LangIDStrDescriptor.str1.1
                0x0000000008007210        0x5 CMakeFiles/bootloader.dir/__/usbd_desc.c.o
 .rodata.USBD_USR_ManufacturerStrDescriptor.str1.1
                0x0000000008007215        0x7 CMakeFiles/bootloader.dir/__/usbd_desc.c.o
 .rodata.USBD_USR_SerialStrDescriptor.str1.1
                0x000000000800721c        0xd CMakeFiles/bootloader.dir/__/usbd_desc.c.o
 .rodata.USBD_USR_ProductStrDescriptor.str1.1
                0x0000000008007229       0x4a CMakeFiles/bootloader.dir/__/usbd_desc.c.o
 .rodata.USBD_USR_ConfigStrDescriptor.str1.1
                0x0000000008007273       0x21 CMakeFiles/bootloader.dir/__/usbd_desc.c.o
 .rodata.USBD_USR_InterfaceStrDescriptor.str1.1
                0x0000000008007294       0x2a CMakeFiles/bootloader.dir/__/usbd_desc.c.o
 .rodata.CSWTCH.1
                0x00000000080072be        0x6 CMakeFiles/bootloader.dir/__/usbd_desc.c.o
 .rodata.CSWTCH.2
                0x00000000080072c4        0x6 CMakeFiles/bootloader.dir/__/usbd_desc.c.o
 *fill*         0x00000000080072ca        0x2 
 .rodata.USR_desc
                0x00000000080072cc       0x1c CMakeFiles/bootloader.dir/__/usbd_desc.c.o
                0x00000000080072cc                USR_desc
 .rodata._Z10openBinDir10MemoryType.str1.1
                0x00000000080072e8       0x2a CMakeFiles/bootloader.dir/bin_files.cpp.o
                                         0x14 (size before relaxing)
 .rodata._Z11openBinFile10MemoryTypej.str1.1
                0x00000000080072e8        0x2 CMakeFiles/bootloader.dir/bin_files.cpp.o
 *(.glue_7)
 .glue_7        0x00000000080072e8        0x0 linker stubs
 *(.glue_7t)
 .glue_7t       0x00000000080072e8        0x0 linker stubs
 *(.eh_frame)
 *(.init)
 *(.fini)
                0x0000000008007314                . = ALIGN (0x4)
                0x00000000080072e8                _etext = .

.vfp11_veneer   0x00000000080072e8        0x0
 .vfp11_veneer  0x00000000080072e8        0x0 linker stubs

.v4_bx          0x00000000080072e8        0x0
 .v4_bx         0x00000000080072e8        0x0 linker stubs

.iplt           0x00000000080072e8        0x0
 .iplt          0x00000000080072e8        0x0 CMakeFiles/bootloader.dir/__/f2/system_stm32f2xx.c.o

.rel.dyn        0x00000000080072e8        0x0
 .rel.iplt      0x00000000080072e8        0x0 CMakeFiles/bootloader.dir/__/f2/system_stm32f2xx.c.o

.ARM.extab
 *(.ARM.extab* .gnu.linkonce.armextab.*)

.ARM            0x00000000080072e8        0x0
                0x00000000080072e8                __exidx_start = .
 *(.ARM.exidx*)
                0x00000000080072e8                __exidx_end = .

.preinit_array  0x00000000080072e8        0x0
                0x00000000080072e8                PROVIDE (__preinit_array_start = .)
 *(.preinit_array*)
                0x00000000080072e8                PROVIDE (__preinit_array_end = .)

.init_array     0x00000000080072e8        0x4
                0x00000000080072e8                PROVIDE (__init_array_start = .)
 *(SORT_BY_NAME(.init_array.*))
 *(.init_array*)
 .init_array    0x00000000080072e8        0x4 CMakeFiles/bootloader.dir/__/usbd_storage_msd.cpp.o
                0x00000000080072ec                PROVIDE (__init_array_end = .)

.fini_array     0x00000000080072ec        0x0
                [!provide]                        PROVIDE (__fini_array_start = .)
 *(.fini_array*)
 *(SORT_BY_NAME(.fini_array.*))
                [!provide]                        PROVIDE (__fini_array_end = .)
                0x00000000080072ec                _sidata = .

.data           0x0000000020000000       0x90 load address 0x00000000080072ec
                0x0000000020000000                . = ALIGN (0x4)
                0x0000000020000000                _sdata = .
 *(.data)
 *(.data*)
 .data._ZL4Stat
                0x0000000020000000        0x1 CMakeFiles/bootloader.dir/__/__/__/__/taranis/diskio.cpp.o
 *fill*         0x0000000020000001        0x3 
 .data._ZL9g_DIRroot
                0x0000000020000004       0x80 CMakeFiles/bootloader.dir/__/usbd_storage_msd.cpp.o
 .data.selectedUsbMode
                0x0000000020000084        0x1 CMakeFiles/bootloader.dir/__/usb_driver.cpp.o
                0x0000000020000084                selectedUsbMode
 *fill*         0x0000000020000085        0x3 
 .data.firmwareAddress
                0x0000000020000088        0x4 CMakeFiles/bootloader.dir/boot.cpp.o
                0x0000000020000088                firmwareAddress
 .data.tenms    0x000000002000008c        0x1 CMakeFiles/bootloader.dir/boot.cpp.o
                0x000000002000008c                tenms
                0x0000000020000090                . = ALIGN (0x4)
 *fill*         0x000000002000008d        0x3 
                0x0000000020000090                _edata = .

.igot.plt       0x0000000020000090        0x0 load address 0x000000000800737c
 .igot.plt      0x0000000020000090        0x0 CMakeFiles/bootloader.dir/__/f2/system_stm32f2xx.c.o
                0x0000000020000090                . = ALIGN (0x4)

.bss            0x0000000020000090     0x36e4 load address 0x000000000800737c
                0x0000000020000090                _sbss = .
                0x0000000020000090                __bss_start__ = _sbss
 *(.bss)
 *(.bss*)
 .bss.inactivity
                0x0000000020000090        0x4 CMakeFiles/bootloader.dir/__/__/__/__/__/keys.cpp.o
                0x0000000020000090                inactivity
 .bss.keys      0x0000000020000094       0x2a CMakeFiles/bootloader.dir/__/__/__/__/__/keys.cpp.o
                0x0000000020000094                keys
 .bss.s_evt     0x00000000200000be        0x2 CMakeFiles/bootloader.dir/__/__/__/__/__/keys.cpp.o
                0x00000000200000be                s_evt
 .bss.USBD_cfg_status
                0x00000000200000c0        0x4 CMakeFiles/bootloader.dir/__/__/__/__/__/thirdparty/STM32_USB-Host-Device_Lib_V2.2.0/Libraries/STM32_USB_Device_Library/Core/src/usbd_req.c.o
                0x00000000200000c0                USBD_cfg_status
 .bss.USBD_ep_status
                0x00000000200000c4        0x4 CMakeFiles/bootloader.dir/__/__/__/__/__/thirdparty/STM32_USB-Host-Device_Lib_V2.2.0/Libraries/STM32_USB_Device_Library/Core/src/usbd_req.c.o
                0x00000000200000c4                USBD_ep_status
 .bss.cfgidx.6369
                0x00000000200000c8        0x1 CMakeFiles/bootloader.dir/__/__/__/__/__/thirdparty/STM32_USB-Host-Device_Lib_V2.2.0/Libraries/STM32_USB_Device_Library/Core/src/usbd_req.c.o
 .bss.USBD_MSC_AltSet
                0x00000000200000c9        0x1 CMakeFiles/bootloader.dir/__/__/__/__/__/thirdparty/STM32_USB-Host-Device_Lib_V2.2.0/Libraries/STM32_USB_Device_Library/Class/msc/src/usbd_msc_core.c.o
 *fill*         0x00000000200000ca        0x2 
 .bss.FatFs     0x00000000200000cc        0x4 CMakeFiles/bootloader.dir/__/__/__/__/__/thirdparty/FatFs/ff.c.o
 .bss.Fsid      0x00000000200000d0        0x2 CMakeFiles/bootloader.dir/__/__/__/__/__/thirdparty/FatFs/ff.c.o
 .bss.lcdInitFinished
                0x00000000200000d2        0x1 CMakeFiles/bootloader.dir/__/__/__/__/taranis/lcd_driver_spi.cpp.o
                0x00000000200000d2                lcdInitFinished
 .bss.lcd_busy  0x00000000200000d3        0x1 CMakeFiles/bootloader.dir/__/__/__/__/taranis/lcd_driver_spi.cpp.o
                0x00000000200000d3                lcd_busy
 .bss.CardType  0x00000000200000d4        0x1 CMakeFiles/bootloader.dir/__/__/__/__/taranis/diskio.cpp.o
                0x00000000200000d4                CardType
 *fill*         0x00000000200000d5        0x3 
 .bss._ZL6Timer1
                0x00000000200000d8        0x4 CMakeFiles/bootloader.dir/__/__/__/__/taranis/diskio.cpp.o
 .bss._ZL6Timer2
                0x00000000200000dc        0x4 CMakeFiles/bootloader.dir/__/__/__/__/taranis/diskio.cpp.o
 .bss._ZZ10sdPoll10msvE2pv
                0x00000000200000e0        0x4 CMakeFiles/bootloader.dir/__/__/__/__/taranis/diskio.cpp.o
 .bss.g_FATFS_Obj
                0x00000000200000e4      0x230 CMakeFiles/bootloader.dir/__/__/__/__/taranis/diskio.cpp.o
                0x00000000200000e4                g_FATFS_Obj
 .bss.hardwareOptions
                0x0000000020000314        0x1 CMakeFiles/bootloader.dir/__/__/__/__/taranis/board.cpp.o
                0x0000000020000314                hardwareOptions
 .bss._ZZ10fat12WriteE9operation
                0x0000000020000315        0x1 CMakeFiles/bootloader.dir/__/usbd_storage_msd.cpp.o
 *fill*         0x0000000020000316        0x2 
 .bss._ZZ19STORAGE_GetCapacityE12sector_count
                0x0000000020000318        0x4 CMakeFiles/bootloader.dir/__/usbd_storage_msd.cpp.o
 .bss.lunReady  0x000000002000031c        0x2 CMakeFiles/bootloader.dir/__/usbd_storage_msd.cpp.o
                0x000000002000031c                lunReady
 *fill*         0x000000002000031e        0x2 
 .bss.USB_OTG_dev
                0x0000000020000320      0x5f4 CMakeFiles/bootloader.dir/__/usb_driver.cpp.o
                0x0000000020000320                USB_OTG_dev
 .bss._ZL16usbDriverStarted
                0x0000000020000914        0x1 CMakeFiles/bootloader.dir/__/usb_driver.cpp.o
 .bss._ZZ10usbPluggedE8debounce
                0x0000000020000915        0x2 CMakeFiles/bootloader.dir/__/usb_driver.cpp.o
 *fill*         0x0000000020000917        0x1 
 .bss._ZL12PowerUpDelay
                0x0000000020000918        0x4 CMakeFiles/bootloader.dir/boot.cpp.o
 .bss._ZZ13interrupt10msvE15rePreviousValue
                0x000000002000091c        0x4 CMakeFiles/bootloader.dir/boot.cpp.o
 .bss.eepromAddress
                0x0000000020000920        0x4 CMakeFiles/bootloader.dir/boot.cpp.o
                0x0000000020000920                eepromAddress
 .bss.eepromWritten
                0x0000000020000924        0x4 CMakeFiles/bootloader.dir/boot.cpp.o
                0x0000000020000924                eepromWritten
 .bss.firmwareSize
                0x0000000020000928        0x4 CMakeFiles/bootloader.dir/boot.cpp.o
                0x0000000020000928                firmwareSize
 .bss.firmwareWritten
                0x000000002000092c        0x4 CMakeFiles/bootloader.dir/boot.cpp.o
                0x000000002000092c                firmwareWritten
 .bss.memoryType
                0x0000000020000930        0x1 CMakeFiles/bootloader.dir/boot.cpp.o
                0x0000000020000930                memoryType
 *fill*         0x0000000020000931        0x3 
 .bss.rotencValue
                0x0000000020000934        0x4 CMakeFiles/bootloader.dir/boot.cpp.o
                0x0000000020000934                rotencValue
 .bss.unlocked  0x0000000020000938        0x4 CMakeFiles/bootloader.dir/boot.cpp.o
                0x0000000020000938                unlocked
 .bss.valid     0x000000002000093c        0x1 CMakeFiles/bootloader.dir/boot.cpp.o
                0x000000002000093c                valid
 *fill*         0x000000002000093d        0x3 
 .bss.BlockCount
                0x0000000020000940        0x4 CMakeFiles/bootloader.dir/bin_files.cpp.o
                0x0000000020000940                BlockCount
 .bss.Block_buffer
                0x0000000020000944     0x1000 CMakeFiles/bootloader.dir/bin_files.cpp.o
                0x0000000020000944                Block_buffer
 .bss._ZL3dir   0x0000000020001944       0x30 CMakeFiles/bootloader.dir/bin_files.cpp.o
 .bss._ZL9FlashFile
                0x0000000020001974      0x220 CMakeFiles/bootloader.dir/bin_files.cpp.o
 .bss.binFiles  0x0000000020001b94      0x71c CMakeFiles/bootloader.dir/bin_files.cpp.o
                0x0000000020001b94                binFiles
 .bss.displayBuf
                0x00000000200022b0      0x400 CMakeFiles/bootloader.dir/__/__/__/__/__/gui/common/stdlcd/lcd_1bit.cpp.o
                0x00000000200022b0                displayBuf
 .bss.lcdLastRightPos
                0x00000000200026b0        0x4 CMakeFiles/bootloader.dir/__/__/__/__/__/gui/common/stdlcd/lcd_1bit.cpp.o
                0x00000000200026b0                lcdLastRightPos
 .bss.lcdNextPos
                0x00000000200026b4        0x4 CMakeFiles/bootloader.dir/__/__/__/__/__/gui/common/stdlcd/lcd_1bit.cpp.o
                0x00000000200026b4                lcdNextPos
 .bss.rotencPosition
                0x00000000200026b8        0x1 CMakeFiles/bootloader.dir/__/rotary_encoder_driver.cpp.o
                0x00000000200026b8                rotencPosition
 *(COMMON)
 *fill*         0x00000000200026b9        0x3 
 COMMON         0x00000000200026bc        0x4 CMakeFiles/bootloader.dir/__/__/__/__/__/thirdparty/STM32_USB-Host-Device_Lib_V2.2.0/Libraries/STM32_USB_Device_Library/Core/src/usbd_core.c.o
                0x00000000200026bc                SET_TEST_MODE
 COMMON         0x00000000200026c0       0x39 CMakeFiles/bootloader.dir/__/__/__/__/__/thirdparty/STM32_USB-Host-Device_Lib_V2.2.0/Libraries/STM32_USB_Device_Library/Class/msc/src/usbd_msc_scsi.c.o
                0x00000000200026c0                SCSI_blk_nbr
                0x00000000200026c4                SCSI_blk_size
                0x00000000200026c8                SCSI_Sense_Head
                0x00000000200026cc                SCSI_blk_len
                0x00000000200026d0                SCSI_Sense
                0x00000000200026f0                SCSI_blk_addr
                0x00000000200026f4                cdev
                0x00000000200026f8                SCSI_Sense_Tail
 *fill*         0x00000000200026f9        0x3 
 COMMON         0x00000000200026fc     0x1038 CMakeFiles/bootloader.dir/__/__/__/__/__/thirdparty/STM32_USB-Host-Device_Lib_V2.2.0/Libraries/STM32_USB_Device_Library/Class/msc/src/usbd_msc_bot.c.o
                0x00000000200026fc                MSC_BOT_Data
                0x00000000200036fc                MSC_BOT_Status
                0x0000000020003700                MSC_BOT_cbw
                0x0000000020003720                MSC_BOT_csw
                0x0000000020003730                MSC_BOT_State
                0x0000000020003732                MSC_BOT_DataLen
 COMMON         0x0000000020003734       0x40 CMakeFiles/bootloader.dir/__/usbd_desc.c.o
                0x0000000020003734                USBD_StrDesc
                0x0000000020003774                . = ALIGN (0x4)
                0x0000000020003774                _ebss = .
                0x0000000020003774                __bss_end__ = _ebss
                [!provide]                        PROVIDE (end = _ebss)
                [!provide]                        PROVIDE (_end = _ebss)

._user_heap_stack
                0x0000000020003774      0x400 load address 0x000000000800aa60
                0x0000000020003774                . = ALIGN (0x4)
                0x0000000020003774                . = (. + _Min_Heap_Size)
                0x0000000020003b74                . = (. + _Main_Stack_Size)
 *fill*         0x0000000020003774      0x400 
                0x0000000020003b74                . = ALIGN (0x4)

.memory_b1_text
 *(.mb1text)
 *(.mb1text*)
 *(.mb1rodata)
 *(.mb1rodata*)

/DISCARD/
 libc.a(*)
 libm.a(*)
 libgcc.a(*)

.ARM.attributes
                0x0000000000000000       0x2b
 *(.ARM.attributes)
 .ARM.attributes
                0x0000000000000000       0x2d CMakeFiles/bootloader.dir/__/f2/system_stm32f2xx.c.o
 .ARM.attributes
                0x000000000000002d       0x21 CMakeFiles/bootloader.dir/__/__/__/__/__/thirdparty/STM32F2xx_StdPeriph_Lib_V1.1.0/Libraries/CMSIS/Device/ST/STM32F2xx/Source/Templates/gcc_ride7/startup_stm32f2xx.s.o
 .ARM.attributes
                0x000000000000004e       0x2d CMakeFiles/bootloader.dir/__/__/__/__/__/thirdparty/STM32F2xx_StdPeriph_Lib_V1.1.0/Libraries/STM32F2xx_StdPeriph_Driver/src/stm32f2xx_rcc.c.o
 .ARM.attributes
                0x000000000000007b       0x2d CMakeFiles/bootloader.dir/__/__/__/__/__/thirdparty/STM32F2xx_StdPeriph_Lib_V1.1.0/Libraries/STM32F2xx_StdPeriph_Driver/src/stm32f2xx_syscfg.c.o
 .ARM.attributes
                0x00000000000000a8       0x2d CMakeFiles/bootloader.dir/__/__/__/__/__/thirdparty/STM32F2xx_StdPeriph_Lib_V1.1.0/Libraries/STM32F2xx_StdPeriph_Driver/src/stm32f2xx_gpio.c.o
 .ARM.attributes
                0x00000000000000d5       0x2d CMakeFiles/bootloader.dir/__/__/__/__/__/thirdparty/STM32F2xx_StdPeriph_Lib_V1.1.0/Libraries/STM32F2xx_StdPeriph_Driver/src/stm32f2xx_exti.c.o
 .ARM.attributes
                0x0000000000000102       0x2d CMakeFiles/bootloader.dir/__/__/__/__/__/thirdparty/STM32F2xx_StdPeriph_Lib_V1.1.0/Libraries/STM32F2xx_StdPeriph_Driver/src/stm32f2xx_spi.c.o
 .ARM.attributes
                0x000000000000012f       0x2d CMakeFiles/bootloader.dir/__/__/__/__/__/thirdparty/STM32F2xx_StdPeriph_Lib_V1.1.0/Libraries/STM32F2xx_StdPeriph_Driver/src/stm32f2xx_i2c.c.o
 .ARM.attributes
                0x000000000000015c       0x2d CMakeFiles/bootloader.dir/__/__/__/__/__/thirdparty/STM32F2xx_StdPeriph_Lib_V1.1.0/Libraries/STM32F2xx_StdPeriph_Driver/src/misc.c.o
 .ARM.attributes
                0x0000000000000189       0x33 CMakeFiles/bootloader.dir/__/__/__/__/__/gui/128x64/fonts.cpp.o
 .ARM.attributes
                0x00000000000001bc       0x2d CMakeFiles/bootloader.dir/__/__/__/__/__/keys.cpp.o
 .ARM.attributes
                0x00000000000001e9       0x2d CMakeFiles/bootloader.dir/__/__/__/__/__/strhelpers.cpp.o
 .ARM.attributes
                0x0000000000000216       0x2d CMakeFiles/bootloader.dir/__/__/__/__/__/stamp.cpp.o
 .ARM.attributes
                0x0000000000000243       0x2d CMakeFiles/bootloader.dir/__/__/__/__/__/thirdparty/STM32_USB-Host-Device_Lib_V2.2.0/Libraries/STM32_USB_OTG_Driver/src/usb_core.c.o
 .ARM.attributes
                0x0000000000000270       0x2d CMakeFiles/bootloader.dir/__/__/__/__/__/thirdparty/STM32_USB-Host-Device_Lib_V2.2.0/Libraries/STM32_USB_OTG_Driver/src/usb_dcd.c.o
 .ARM.attributes
                0x000000000000029d       0x2d CMakeFiles/bootloader.dir/__/__/__/__/__/thirdparty/STM32_USB-Host-Device_Lib_V2.2.0/Libraries/STM32_USB_OTG_Driver/src/usb_dcd_int.c.o
 .ARM.attributes
                0x00000000000002ca       0x2d CMakeFiles/bootloader.dir/__/__/__/__/__/thirdparty/STM32_USB-Host-Device_Lib_V2.2.0/Libraries/STM32_USB_Device_Library/Core/src/usbd_core.c.o
 .ARM.attributes
                0x00000000000002f7       0x2d CMakeFiles/bootloader.dir/__/__/__/__/__/thirdparty/STM32_USB-Host-Device_Lib_V2.2.0/Libraries/STM32_USB_Device_Library/Core/src/usbd_ioreq.c.o
 .ARM.attributes
                0x0000000000000324       0x2d CMakeFiles/bootloader.dir/__/__/__/__/__/thirdparty/STM32_USB-Host-Device_Lib_V2.2.0/Libraries/STM32_USB_Device_Library/Core/src/usbd_req.c.o
 .ARM.attributes
                0x0000000000000351       0x33 CMakeFiles/bootloader.dir/__/__/__/__/__/thirdparty/STM32_USB-Host-Device_Lib_V2.2.0/Libraries/STM32_USB_Device_Library/Class/msc/src/usbd_msc_data.c.o
 .ARM.attributes
                0x0000000000000384       0x2d CMakeFiles/bootloader.dir/__/__/__/__/__/thirdparty/STM32_USB-Host-Device_Lib_V2.2.0/Libraries/STM32_USB_Device_Library/Class/msc/src/usbd_msc_scsi.c.o
 .ARM.attributes
                0x00000000000003b1       0x2d CMakeFiles/bootloader.dir/__/__/__/__/__/thirdparty/STM32_USB-Host-Device_Lib_V2.2.0/Libraries/STM32_USB_Device_Library/Class/msc/src/usbd_msc_bot.c.o
 .ARM.attributes
                0x00000000000003de       0x2d CMakeFiles/bootloader.dir/__/__/__/__/__/thirdparty/STM32_USB-Host-Device_Lib_V2.2.0/Libraries/STM32_USB_Device_Library/Class/msc/src/usbd_msc_core.c.o
 .ARM.attributes
                0x000000000000040b       0x2d CMakeFiles/bootloader.dir/__/__/__/__/__/thirdparty/FatFs/ff.c.o
 .ARM.attributes
                0x0000000000000438       0x2d CMakeFiles/bootloader.dir/__/__/__/__/__/thirdparty/FatFs/option/ccsbcs.c.o
 .ARM.attributes
                0x0000000000000465       0x2d CMakeFiles/bootloader.dir/__/__/__/__/taranis/lcd_driver_spi.cpp.o
 .ARM.attributes
                0x0000000000000492       0x2d CMakeFiles/bootloader.dir/__/__/__/__/taranis/backlight_driver.cpp.o
 .ARM.attributes
                0x00000000000004bf       0x2d CMakeFiles/bootloader.dir/__/__/__/__/taranis/keys_driver.cpp.o
 .ARM.attributes
                0x00000000000004ec       0x2d CMakeFiles/bootloader.dir/__/__/__/__/taranis/diskio.cpp.o
 .ARM.attributes
                0x0000000000000519       0x2d CMakeFiles/bootloader.dir/__/__/__/__/taranis/board.cpp.o
 .ARM.attributes
                0x0000000000000546       0x2d CMakeFiles/bootloader.dir/__/pwr_driver.cpp.o
 .ARM.attributes
                0x0000000000000573       0x2d CMakeFiles/bootloader.dir/__/__/__/__/taranis/bootloader/boot_menu.cpp.o
 .ARM.attributes
                0x00000000000005a0       0x2d CMakeFiles/bootloader.dir/__/usbd_usr.cpp.o
 .ARM.attributes
                0x00000000000005cd       0x2d CMakeFiles/bootloader.dir/__/usbd_storage_msd.cpp.o
 .ARM.attributes
                0x00000000000005fa       0x2d CMakeFiles/bootloader.dir/__/delays.cpp.o
 .ARM.attributes
                0x0000000000000627       0x2d CMakeFiles/bootloader.dir/__/usbd_desc.c.o
 .ARM.attributes
                0x0000000000000654       0x2d CMakeFiles/bootloader.dir/__/usb_bsp.c.o
 .ARM.attributes
                0x0000000000000681       0x2d CMakeFiles/bootloader.dir/__/usb_driver.cpp.o
 .ARM.attributes
                0x00000000000006ae       0x2d CMakeFiles/bootloader.dir/__/flash_driver.cpp.o
 .ARM.attributes
                0x00000000000006db       0x2d CMakeFiles/bootloader.dir/init.c.o
 .ARM.attributes
                0x0000000000000708       0x2d CMakeFiles/bootloader.dir/boot.cpp.o
 .ARM.attributes
                0x0000000000000735       0x2d CMakeFiles/bootloader.dir/bin_files.cpp.o
 .ARM.attributes
                0x0000000000000762       0x2d CMakeFiles/bootloader.dir/__/__/__/__/__/gui/common/stdlcd/lcd_1bit.cpp.o
 .ARM.attributes
                0x000000000000078f       0x2d CMakeFiles/bootloader.dir/__/rotary_encoder_driver.cpp.o
 .ARM.attributes
                0x00000000000007bc       0x2d CMakeFiles/bootloader.dir/__/bluetooth_driver.cpp.o
 .ARM.attributes
                0x00000000000007e9       0x2d CMakeFiles/bootloader.dir/__/__/__/__/taranis/i2c_driver.cpp.o
 .ARM.attributes
                0x0000000000000816       0x2d /usr/lib/gcc/arm-none-eabi/9.2.1/../../../arm-none-eabi/lib/thumb/v7-m/nofp/libg_nano.a(lib_a-init.o)
 .ARM.attributes
                0x0000000000000843       0x2d /usr/lib/gcc/arm-none-eabi/9.2.1/../../../arm-none-eabi/lib/thumb/v7-m/nofp/libg_nano.a(lib_a-memcmp.o)
 .ARM.attributes
                0x0000000000000870       0x1b /usr/lib/gcc/arm-none-eabi/9.2.1/../../../arm-none-eabi/lib/thumb/v7-m/nofp/libg_nano.a(lib_a-memcpy.o)
 .ARM.attributes
                0x000000000000088b       0x2d /usr/lib/gcc/arm-none-eabi/9.2.1/../../../arm-none-eabi/lib/thumb/v7-m/nofp/libg_nano.a(lib_a-memset.o)
 .ARM.attributes
                0x00000000000008b8       0x2d /usr/lib/gcc/arm-none-eabi/9.2.1/../../../arm-none-eabi/lib/thumb/v7-m/nofp/libg_nano.a(lib_a-strcpy.o)
 .ARM.attributes
                0x00000000000008e5       0x2d /usr/lib/gcc/arm-none-eabi/9.2.1/../../../arm-none-eabi/lib/thumb/v7-m/nofp/libg_nano.a(lib_a-strlen-stub.o)
 .ARM.attributes
                0x0000000000000912       0x2d /usr/lib/gcc/arm-none-eabi/9.2.1/../../../arm-none-eabi/lib/thumb/v7-m/nofp/libg_nano.a(lib_a-strncmp.o)
OUTPUT(bootloader.elf elf32-littlearm)
LOAD linker stubs
LOAD /usr/lib/gcc/arm-none-eabi/9.2.1/../../../arm-none-eabi/lib/thumb/v7-m/nofp/libc.a
LOAD /usr/lib/gcc/arm-none-eabi/9.2.1/../../../arm-none-eabi/lib/thumb/v7-m/nofp/libm.a
LOAD /usr/lib/gcc/arm-none-eabi/9.2.1/thumb/v7-m/nofp/libgcc.a

.debug_info     0x0000000000000000   0x10824c
 .debug_info    0x0000000000000000      0x67b CMakeFiles/bootloader.dir/__/f2/system_stm32f2xx.c.o
 .debug_info    0x000000000000067b      0xec0 CMakeFiles/bootloader.dir/__/__/__/__/__/thirdparty/STM32F2xx_StdPeriph_Lib_V1.1.0/Libraries/STM32F2xx_StdPeriph_Driver/src/stm32f2xx_rcc.c.o
 .debug_info    0x000000000000153b      0x2fc CMakeFiles/bootloader.dir/__/__/__/__/__/thirdparty/STM32F2xx_StdPeriph_Lib_V1.1.0/Libraries/STM32F2xx_StdPeriph_Driver/src/stm32f2xx_syscfg.c.o
 .debug_info    0x0000000000001837      0x7e6 CMakeFiles/bootloader.dir/__/__/__/__/__/thirdparty/STM32F2xx_StdPeriph_Lib_V1.1.0/Libraries/STM32F2xx_StdPeriph_Driver/src/stm32f2xx_gpio.c.o
 .debug_info    0x000000000000201d      0x3cf CMakeFiles/bootloader.dir/__/__/__/__/__/thirdparty/STM32F2xx_StdPeriph_Lib_V1.1.0/Libraries/STM32F2xx_StdPeriph_Driver/src/stm32f2xx_exti.c.o
 .debug_info    0x00000000000023ec      0xd2d CMakeFiles/bootloader.dir/__/__/__/__/__/thirdparty/STM32F2xx_StdPeriph_Lib_V1.1.0/Libraries/STM32F2xx_StdPeriph_Driver/src/stm32f2xx_spi.c.o
 .debug_info    0x0000000000003119      0xd3b CMakeFiles/bootloader.dir/__/__/__/__/__/thirdparty/STM32F2xx_StdPeriph_Lib_V1.1.0/Libraries/STM32F2xx_StdPeriph_Driver/src/stm32f2xx_i2c.c.o
 .debug_info    0x0000000000003e54      0x5fc CMakeFiles/bootloader.dir/__/__/__/__/__/thirdparty/STM32F2xx_StdPeriph_Lib_V1.1.0/Libraries/STM32F2xx_StdPeriph_Driver/src/misc.c.o
 .debug_info    0x0000000000004450     0xb148 CMakeFiles/bootloader.dir/__/__/__/__/__/gui/128x64/fonts.cpp.o
 .debug_info    0x000000000000f598     0xb6c3 CMakeFiles/bootloader.dir/__/__/__/__/__/keys.cpp.o
 .debug_info    0x000000000001ac5b     0xb605 CMakeFiles/bootloader.dir/__/__/__/__/__/strhelpers.cpp.o
 .debug_info    0x0000000000026260     0xb20c CMakeFiles/bootloader.dir/__/__/__/__/__/stamp.cpp.o
 .debug_info    0x000000000003146c     0x2f19 CMakeFiles/bootloader.dir/__/__/__/__/__/thirdparty/STM32_USB-Host-Device_Lib_V2.2.0/Libraries/STM32_USB_OTG_Driver/src/usb_core.c.o
 .debug_info    0x0000000000034385     0x1648 CMakeFiles/bootloader.dir/__/__/__/__/__/thirdparty/STM32_USB-Host-Device_Lib_V2.2.0/Libraries/STM32_USB_OTG_Driver/src/usb_dcd.c.o
 .debug_info    0x00000000000359cd     0x2c5c CMakeFiles/bootloader.dir/__/__/__/__/__/thirdparty/STM32_USB-Host-Device_Lib_V2.2.0/Libraries/STM32_USB_OTG_Driver/src/usb_dcd_int.c.o
 .debug_info    0x0000000000038629     0x17a9 CMakeFiles/bootloader.dir/__/__/__/__/__/thirdparty/STM32_USB-Host-Device_Lib_V2.2.0/Libraries/STM32_USB_Device_Library/Core/src/usbd_core.c.o
 .debug_info    0x0000000000039dd2     0x1077 CMakeFiles/bootloader.dir/__/__/__/__/__/thirdparty/STM32_USB-Host-Device_Lib_V2.2.0/Libraries/STM32_USB_Device_Library/Core/src/usbd_ioreq.c.o
 .debug_info    0x000000000003ae49     0x177f CMakeFiles/bootloader.dir/__/__/__/__/__/thirdparty/STM32_USB-Host-Device_Lib_V2.2.0/Libraries/STM32_USB_Device_Library/Core/src/usbd_req.c.o
 .debug_info    0x000000000003c5c8       0xd9 CMakeFiles/bootloader.dir/__/__/__/__/__/thirdparty/STM32_USB-Host-Device_Lib_V2.2.0/Libraries/STM32_USB_Device_Library/Class/msc/src/usbd_msc_data.c.o
 .debug_info    0x000000000003c6a1     0x1a62 CMakeFiles/bootloader.dir/__/__/__/__/__/thirdparty/STM32_USB-Host-Device_Lib_V2.2.0/Libraries/STM32_USB_Device_Library/Class/msc/src/usbd_msc_scsi.c.o
 .debug_info    0x000000000003e103     0x1622 CMakeFiles/bootloader.dir/__/__/__/__/__/thirdparty/STM32_USB-Host-Device_Lib_V2.2.0/Libraries/STM32_USB_Device_Library/Class/msc/src/usbd_msc_bot.c.o
 .debug_info    0x000000000003f725      0x90b CMakeFiles/bootloader.dir/__/__/__/__/__/thirdparty/STM32_USB-Host-Device_Lib_V2.2.0/Libraries/STM32_USB_Device_Library/Class/msc/src/usbd_msc_core.c.o
 .debug_info    0x0000000000040030     0x2705 CMakeFiles/bootloader.dir/__/__/__/__/__/thirdparty/FatFs/ff.c.o
 .debug_info    0x0000000000042735      0x1f8 CMakeFiles/bootloader.dir/__/__/__/__/__/thirdparty/FatFs/option/ccsbcs.c.o
 .debug_info    0x000000000004292d     0xbfd4 CMakeFiles/bootloader.dir/__/__/__/__/taranis/lcd_driver_spi.cpp.o
 .debug_info    0x000000000004e901     0xb631 CMakeFiles/bootloader.dir/__/__/__/__/taranis/backlight_driver.cpp.o
 .debug_info    0x0000000000059f32     0xb63a CMakeFiles/bootloader.dir/__/__/__/__/taranis/keys_driver.cpp.o
 .debug_info    0x000000000006556c     0xc86e CMakeFiles/bootloader.dir/__/__/__/__/taranis/diskio.cpp.o
 .debug_info    0x0000000000071dda     0xc769 CMakeFiles/bootloader.dir/__/__/__/__/taranis/board.cpp.o
 .debug_info    0x000000000007e543     0xb75f CMakeFiles/bootloader.dir/__/pwr_driver.cpp.o
 .debug_info    0x0000000000089ca2     0xb99e CMakeFiles/bootloader.dir/__/__/__/__/taranis/bootloader/boot_menu.cpp.o
 .debug_info    0x0000000000095640     0xb1c8 CMakeFiles/bootloader.dir/__/usbd_usr.cpp.o
 .debug_info    0x00000000000a0808     0xc35f CMakeFiles/bootloader.dir/__/usbd_storage_msd.cpp.o
 .debug_info    0x00000000000acb67      0x8d0 CMakeFiles/bootloader.dir/__/delays.cpp.o
 .debug_info    0x00000000000ad437     0x13a3 CMakeFiles/bootloader.dir/__/usbd_desc.c.o
 .debug_info    0x00000000000ae7da     0x198e CMakeFiles/bootloader.dir/__/usb_bsp.c.o
 .debug_info    0x00000000000b0168     0xc01a CMakeFiles/bootloader.dir/__/usb_driver.cpp.o
 .debug_info    0x00000000000bc182     0xb33d CMakeFiles/bootloader.dir/__/flash_driver.cpp.o
 .debug_info    0x00000000000c74bf       0x50 CMakeFiles/bootloader.dir/init.c.o
 .debug_info    0x00000000000c750f     0xcac0 CMakeFiles/bootloader.dir/boot.cpp.o
 .debug_info    0x00000000000d3fcf     0xb8ff CMakeFiles/bootloader.dir/bin_files.cpp.o
 .debug_info    0x00000000000df8ce     0xccfe CMakeFiles/bootloader.dir/__/__/__/__/__/gui/common/stdlcd/lcd_1bit.cpp.o
 .debug_info    0x00000000000ec5cc     0xbec5 CMakeFiles/bootloader.dir/__/rotary_encoder_driver.cpp.o
 .debug_info    0x00000000000f8491     0xb3c1 CMakeFiles/bootloader.dir/__/bluetooth_driver.cpp.o
 .debug_info    0x0000000000103852     0x13be CMakeFiles/bootloader.dir/__/__/__/__/taranis/i2c_driver.cpp.o
 .debug_info    0x0000000000104c10      0x11a /usr/lib/gcc/arm-none-eabi/9.2.1/../../../arm-none-eabi/lib/thumb/v7-m/nofp/libg_nano.a(lib_a-init.o)
 .debug_info    0x0000000000104d2a      0x9c2 /usr/lib/gcc/arm-none-eabi/9.2.1/../../../arm-none-eabi/lib/thumb/v7-m/nofp/libg_nano.a(lib_a-memcmp.o)
 .debug_info    0x00000000001056ec       0x26 /usr/lib/gcc/arm-none-eabi/9.2.1/../../../arm-none-eabi/lib/thumb/v7-m/nofp/libg_nano.a(lib_a-memcpy.o)
 .debug_info    0x0000000000105712      0xf21 /usr/lib/gcc/arm-none-eabi/9.2.1/../../../arm-none-eabi/lib/thumb/v7-m/nofp/libg_nano.a(lib_a-memset.o)
 .debug_info    0x0000000000106633      0x943 /usr/lib/gcc/arm-none-eabi/9.2.1/../../../arm-none-eabi/lib/thumb/v7-m/nofp/libg_nano.a(lib_a-strcpy.o)
 .debug_info    0x0000000000106f76      0x941 /usr/lib/gcc/arm-none-eabi/9.2.1/../../../arm-none-eabi/lib/thumb/v7-m/nofp/libg_nano.a(lib_a-strlen-stub.o)
 .debug_info    0x00000000001078b7      0x995 /usr/lib/gcc/arm-none-eabi/9.2.1/../../../arm-none-eabi/lib/thumb/v7-m/nofp/libg_nano.a(lib_a-strncmp.o)

.debug_abbrev   0x0000000000000000    0x111ca
 .debug_abbrev  0x0000000000000000      0x1a7 CMakeFiles/bootloader.dir/__/f2/system_stm32f2xx.c.o
 .debug_abbrev  0x00000000000001a7      0x293 CMakeFiles/bootloader.dir/__/__/__/__/__/thirdparty/STM32F2xx_StdPeriph_Lib_V1.1.0/Libraries/STM32F2xx_StdPeriph_Driver/src/stm32f2xx_rcc.c.o
 .debug_abbrev  0x000000000000043a      0x1bd CMakeFiles/bootloader.dir/__/__/__/__/__/thirdparty/STM32F2xx_StdPeriph_Lib_V1.1.0/Libraries/STM32F2xx_StdPeriph_Driver/src/stm32f2xx_syscfg.c.o
 .debug_abbrev  0x00000000000005f7      0x27d CMakeFiles/bootloader.dir/__/__/__/__/__/thirdparty/STM32F2xx_StdPeriph_Lib_V1.1.0/Libraries/STM32F2xx_StdPeriph_Driver/src/stm32f2xx_gpio.c.o
 .debug_abbrev  0x0000000000000874      0x26b CMakeFiles/bootloader.dir/__/__/__/__/__/thirdparty/STM32F2xx_StdPeriph_Lib_V1.1.0/Libraries/STM32F2xx_StdPeriph_Driver/src/stm32f2xx_exti.c.o
 .debug_abbrev  0x0000000000000adf      0x274 CMakeFiles/bootloader.dir/__/__/__/__/__/thirdparty/STM32F2xx_StdPeriph_Lib_V1.1.0/Libraries/STM32F2xx_StdPeriph_Driver/src/stm32f2xx_spi.c.o
 .debug_abbrev  0x0000000000000d53      0x2bd CMakeFiles/bootloader.dir/__/__/__/__/__/thirdparty/STM32F2xx_StdPeriph_Lib_V1.1.0/Libraries/STM32F2xx_StdPeriph_Driver/src/stm32f2xx_i2c.c.o
 .debug_abbrev  0x0000000000001010      0x1a9 CMakeFiles/bootloader.dir/__/__/__/__/__/thirdparty/STM32F2xx_StdPeriph_Lib_V1.1.0/Libraries/STM32F2xx_StdPeriph_Driver/src/misc.c.o
 .debug_abbrev  0x00000000000011b9      0x843 CMakeFiles/bootloader.dir/__/__/__/__/__/gui/128x64/fonts.cpp.o
 .debug_abbrev  0x00000000000019fc      0xa7b CMakeFiles/bootloader.dir/__/__/__/__/__/keys.cpp.o
 .debug_abbrev  0x0000000000002477      0x96f CMakeFiles/bootloader.dir/__/__/__/__/__/strhelpers.cpp.o
 .debug_abbrev  0x0000000000002de6      0x8da CMakeFiles/bootloader.dir/__/__/__/__/__/stamp.cpp.o
 .debug_abbrev  0x00000000000036c0      0x539 CMakeFiles/bootloader.dir/__/__/__/__/__/thirdparty/STM32_USB-Host-Device_Lib_V2.2.0/Libraries/STM32_USB_OTG_Driver/src/usb_core.c.o
 .debug_abbrev  0x0000000000003bf9      0x327 CMakeFiles/bootloader.dir/__/__/__/__/__/thirdparty/STM32_USB-Host-Device_Lib_V2.2.0/Libraries/STM32_USB_OTG_Driver/src/usb_dcd.c.o
 .debug_abbrev  0x0000000000003f20      0x32d CMakeFiles/bootloader.dir/__/__/__/__/__/thirdparty/STM32_USB-Host-Device_Lib_V2.2.0/Libraries/STM32_USB_OTG_Driver/src/usb_dcd_int.c.o
 .debug_abbrev  0x000000000000424d      0x3fa CMakeFiles/bootloader.dir/__/__/__/__/__/thirdparty/STM32_USB-Host-Device_Lib_V2.2.0/Libraries/STM32_USB_Device_Library/Core/src/usbd_core.c.o
 .debug_abbrev  0x0000000000004647      0x216 CMakeFiles/bootloader.dir/__/__/__/__/__/thirdparty/STM32_USB-Host-Device_Lib_V2.2.0/Libraries/STM32_USB_Device_Library/Core/src/usbd_ioreq.c.o
 .debug_abbrev  0x000000000000485d      0x452 CMakeFiles/bootloader.dir/__/__/__/__/__/thirdparty/STM32_USB-Host-Device_Lib_V2.2.0/Libraries/STM32_USB_Device_Library/Core/src/usbd_req.c.o
 .debug_abbrev  0x0000000000004caf       0x6c CMakeFiles/bootloader.dir/__/__/__/__/__/thirdparty/STM32_USB-Host-Device_Lib_V2.2.0/Libraries/STM32_USB_Device_Library/Class/msc/src/usbd_msc_data.c.o
 .debug_abbrev  0x0000000000004d1b      0x3b1 CMakeFiles/bootloader.dir/__/__/__/__/__/thirdparty/STM32_USB-Host-Device_Lib_V2.2.0/Libraries/STM32_USB_Device_Library/Class/msc/src/usbd_msc_scsi.c.o
 .debug_abbrev  0x00000000000050cc      0x32f CMakeFiles/bootloader.dir/__/__/__/__/__/thirdparty/STM32_USB-Host-Device_Lib_V2.2.0/Libraries/STM32_USB_Device_Library/Class/msc/src/usbd_msc_bot.c.o
 .debug_abbrev  0x00000000000053fb      0x214 CMakeFiles/bootloader.dir/__/__/__/__/__/thirdparty/STM32_USB-Host-Device_Lib_V2.2.0/Libraries/STM32_USB_Device_Library/Class/msc/src/usbd_msc_core.c.o
 .debug_abbrev  0x000000000000560f      0x353 CMakeFiles/bootloader.dir/__/__/__/__/__/thirdparty/FatFs/ff.c.o
 .debug_abbrev  0x0000000000005962       0xe1 CMakeFiles/bootloader.dir/__/__/__/__/__/thirdparty/FatFs/option/ccsbcs.c.o
 .debug_abbrev  0x0000000000005a43      0xa43 CMakeFiles/bootloader.dir/__/__/__/__/taranis/lcd_driver_spi.cpp.o
 .debug_abbrev  0x0000000000006486      0x91c CMakeFiles/bootloader.dir/__/__/__/__/taranis/backlight_driver.cpp.o
 .debug_abbrev  0x0000000000006da2      0x993 CMakeFiles/bootloader.dir/__/__/__/__/taranis/keys_driver.cpp.o
 .debug_abbrev  0x0000000000007735      0xc5b CMakeFiles/bootloader.dir/__/__/__/__/taranis/diskio.cpp.o
 .debug_abbrev  0x0000000000008390      0x9f6 CMakeFiles/bootloader.dir/__/__/__/__/taranis/board.cpp.o
 .debug_abbrev  0x0000000000008d86      0x90e CMakeFiles/bootloader.dir/__/pwr_driver.cpp.o
 .debug_abbrev  0x0000000000009694      0x9f5 CMakeFiles/bootloader.dir/__/__/__/__/taranis/bootloader/boot_menu.cpp.o
 .debug_abbrev  0x000000000000a089      0x8a8 CMakeFiles/bootloader.dir/__/usbd_usr.cpp.o
 .debug_abbrev  0x000000000000a931      0xc3e CMakeFiles/bootloader.dir/__/usbd_storage_msd.cpp.o
 .debug_abbrev  0x000000000000b56f      0x1ca CMakeFiles/bootloader.dir/__/delays.cpp.o
 .debug_abbrev  0x000000000000b739      0x391 CMakeFiles/bootloader.dir/__/usbd_desc.c.o
 .debug_abbrev  0x000000000000baca      0x308 CMakeFiles/bootloader.dir/__/usb_bsp.c.o
 .debug_abbrev  0x000000000000bdd2      0xa0e CMakeFiles/bootloader.dir/__/usb_driver.cpp.o
 .debug_abbrev  0x000000000000c7e0      0x901 CMakeFiles/bootloader.dir/__/flash_driver.cpp.o
 .debug_abbrev  0x000000000000d0e1       0x4a CMakeFiles/bootloader.dir/init.c.o
 .debug_abbrev  0x000000000000d12b      0xbdd CMakeFiles/bootloader.dir/boot.cpp.o
 .debug_abbrev  0x000000000000dd08      0x9e6 CMakeFiles/bootloader.dir/bin_files.cpp.o
 .debug_abbrev  0x000000000000e6ee      0xba1 CMakeFiles/bootloader.dir/__/__/__/__/__/gui/common/stdlcd/lcd_1bit.cpp.o
 .debug_abbrev  0x000000000000f28f      0xa33 CMakeFiles/bootloader.dir/__/rotary_encoder_driver.cpp.o
 .debug_abbrev  0x000000000000fcc2      0x8d0 CMakeFiles/bootloader.dir/__/bluetooth_driver.cpp.o
 .debug_abbrev  0x0000000000010592      0x2ed CMakeFiles/bootloader.dir/__/__/__/__/taranis/i2c_driver.cpp.o
 .debug_abbrev  0x000000000001087f       0xcc /usr/lib/gcc/arm-none-eabi/9.2.1/../../../arm-none-eabi/lib/thumb/v7-m/nofp/libg_nano.a(lib_a-init.o)
 .debug_abbrev  0x000000000001094b      0x1af /usr/lib/gcc/arm-none-eabi/9.2.1/../../../arm-none-eabi/lib/thumb/v7-m/nofp/libg_nano.a(lib_a-memcmp.o)
 .debug_abbrev  0x0000000000010afa       0x14 /usr/lib/gcc/arm-none-eabi/9.2.1/../../../arm-none-eabi/lib/thumb/v7-m/nofp/libg_nano.a(lib_a-memcpy.o)
 .debug_abbrev  0x0000000000010b0e      0x1d9 /usr/lib/gcc/arm-none-eabi/9.2.1/../../../arm-none-eabi/lib/thumb/v7-m/nofp/libg_nano.a(lib_a-memset.o)
 .debug_abbrev  0x0000000000010ce7      0x1a5 /usr/lib/gcc/arm-none-eabi/9.2.1/../../../arm-none-eabi/lib/thumb/v7-m/nofp/libg_nano.a(lib_a-strcpy.o)
 .debug_abbrev  0x0000000000010e8c      0x194 /usr/lib/gcc/arm-none-eabi/9.2.1/../../../arm-none-eabi/lib/thumb/v7-m/nofp/libg_nano.a(lib_a-strlen-stub.o)
 .debug_abbrev  0x0000000000011020      0x1aa /usr/lib/gcc/arm-none-eabi/9.2.1/../../../arm-none-eabi/lib/thumb/v7-m/nofp/libg_nano.a(lib_a-strncmp.o)

.debug_loc      0x0000000000000000    0x12942
 .debug_loc     0x0000000000000000      0x16a CMakeFiles/bootloader.dir/__/f2/system_stm32f2xx.c.o
 .debug_loc     0x000000000000016a      0xa70 CMakeFiles/bootloader.dir/__/__/__/__/__/thirdparty/STM32F2xx_StdPeriph_Lib_V1.1.0/Libraries/STM32F2xx_StdPeriph_Driver/src/stm32f2xx_rcc.c.o
 .debug_loc     0x0000000000000bda       0xf5 CMakeFiles/bootloader.dir/__/__/__/__/__/thirdparty/STM32F2xx_StdPeriph_Lib_V1.1.0/Libraries/STM32F2xx_StdPeriph_Driver/src/stm32f2xx_syscfg.c.o
 .debug_loc     0x0000000000000ccf      0x413 CMakeFiles/bootloader.dir/__/__/__/__/__/thirdparty/STM32F2xx_StdPeriph_Lib_V1.1.0/Libraries/STM32F2xx_StdPeriph_Driver/src/stm32f2xx_gpio.c.o
 .debug_loc     0x00000000000010e2      0x19b CMakeFiles/bootloader.dir/__/__/__/__/__/thirdparty/STM32F2xx_StdPeriph_Lib_V1.1.0/Libraries/STM32F2xx_StdPeriph_Driver/src/stm32f2xx_exti.c.o
 .debug_loc     0x000000000000127d      0x6f9 CMakeFiles/bootloader.dir/__/__/__/__/__/thirdparty/STM32F2xx_StdPeriph_Lib_V1.1.0/Libraries/STM32F2xx_StdPeriph_Driver/src/stm32f2xx_spi.c.o
 .debug_loc     0x0000000000001976      0x87c CMakeFiles/bootloader.dir/__/__/__/__/__/thirdparty/STM32F2xx_StdPeriph_Lib_V1.1.0/Libraries/STM32F2xx_StdPeriph_Driver/src/stm32f2xx_i2c.c.o
 .debug_loc     0x00000000000021f2      0x171 CMakeFiles/bootloader.dir/__/__/__/__/__/thirdparty/STM32F2xx_StdPeriph_Lib_V1.1.0/Libraries/STM32F2xx_StdPeriph_Driver/src/misc.c.o
 .debug_loc     0x0000000000002363      0x4b3 CMakeFiles/bootloader.dir/__/__/__/__/__/keys.cpp.o
 .debug_loc     0x0000000000002816      0x610 CMakeFiles/bootloader.dir/__/__/__/__/__/strhelpers.cpp.o
 .debug_loc     0x0000000000002e26       0x84 CMakeFiles/bootloader.dir/__/__/__/__/__/stamp.cpp.o
 .debug_loc     0x0000000000002eaa     0x180b CMakeFiles/bootloader.dir/__/__/__/__/__/thirdparty/STM32_USB-Host-Device_Lib_V2.2.0/Libraries/STM32_USB_OTG_Driver/src/usb_core.c.o
 .debug_loc     0x00000000000046b5      0x820 CMakeFiles/bootloader.dir/__/__/__/__/__/thirdparty/STM32_USB-Host-Device_Lib_V2.2.0/Libraries/STM32_USB_OTG_Driver/src/usb_dcd.c.o
 .debug_loc     0x0000000000004ed5      0x99b CMakeFiles/bootloader.dir/__/__/__/__/__/thirdparty/STM32_USB-Host-Device_Lib_V2.2.0/Libraries/STM32_USB_OTG_Driver/src/usb_dcd_int.c.o
 .debug_loc     0x0000000000005870      0x7f9 CMakeFiles/bootloader.dir/__/__/__/__/__/thirdparty/STM32_USB-Host-Device_Lib_V2.2.0/Libraries/STM32_USB_Device_Library/Core/src/usbd_core.c.o
 .debug_loc     0x0000000000006069      0x33e CMakeFiles/bootloader.dir/__/__/__/__/__/thirdparty/STM32_USB-Host-Device_Lib_V2.2.0/Libraries/STM32_USB_Device_Library/Core/src/usbd_ioreq.c.o
 .debug_loc     0x00000000000063a7      0xa4c CMakeFiles/bootloader.dir/__/__/__/__/__/thirdparty/STM32_USB-Host-Device_Lib_V2.2.0/Libraries/STM32_USB_Device_Library/Core/src/usbd_req.c.o
 .debug_loc     0x0000000000006df3      0xad3 CMakeFiles/bootloader.dir/__/__/__/__/__/thirdparty/STM32_USB-Host-Device_Lib_V2.2.0/Libraries/STM32_USB_Device_Library/Class/msc/src/usbd_msc_scsi.c.o
 .debug_loc     0x00000000000078c6      0x5bc CMakeFiles/bootloader.dir/__/__/__/__/__/thirdparty/STM32_USB-Host-Device_Lib_V2.2.0/Libraries/STM32_USB_Device_Library/Class/msc/src/usbd_msc_bot.c.o
 .debug_loc     0x0000000000007e82      0x32d CMakeFiles/bootloader.dir/__/__/__/__/__/thirdparty/STM32_USB-Host-Device_Lib_V2.2.0/Libraries/STM32_USB_Device_Library/Class/msc/src/usbd_msc_core.c.o
 .debug_loc     0x00000000000081af     0x325e CMakeFiles/bootloader.dir/__/__/__/__/__/thirdparty/FatFs/ff.c.o
 .debug_loc     0x000000000000b40d      0x34c CMakeFiles/bootloader.dir/__/__/__/__/__/thirdparty/FatFs/option/ccsbcs.c.o
 .debug_loc     0x000000000000b759      0x1f8 CMakeFiles/bootloader.dir/__/__/__/__/taranis/lcd_driver_spi.cpp.o
 .debug_loc     0x000000000000b951       0x51 CMakeFiles/bootloader.dir/__/__/__/__/taranis/backlight_driver.cpp.o
 .debug_loc     0x000000000000b9a2      0x232 CMakeFiles/bootloader.dir/__/__/__/__/taranis/keys_driver.cpp.o
 .debug_loc     0x000000000000bbd4     0x1219 CMakeFiles/bootloader.dir/__/__/__/__/taranis/diskio.cpp.o
 .debug_loc     0x000000000000cded       0xdc CMakeFiles/bootloader.dir/__/__/__/__/taranis/board.cpp.o
 .debug_loc     0x000000000000cec9       0x78 CMakeFiles/bootloader.dir/__/pwr_driver.cpp.o
 .debug_loc     0x000000000000cf41      0x527 CMakeFiles/bootloader.dir/__/__/__/__/taranis/bootloader/boot_menu.cpp.o
 .debug_loc     0x000000000000d468      0xaea CMakeFiles/bootloader.dir/__/usbd_storage_msd.cpp.o
 .debug_loc     0x000000000000df52       0xf3 CMakeFiles/bootloader.dir/__/delays.cpp.o
 .debug_loc     0x000000000000e045      0x493 CMakeFiles/bootloader.dir/__/usbd_desc.c.o
 .debug_loc     0x000000000000e4d8       0xf6 CMakeFiles/bootloader.dir/__/usb_bsp.c.o
 .debug_loc     0x000000000000e5ce      0x12e CMakeFiles/bootloader.dir/__/usb_driver.cpp.o
 .debug_loc     0x000000000000e6fc      0x37e CMakeFiles/bootloader.dir/__/flash_driver.cpp.o
 .debug_loc     0x000000000000ea7a      0x9d3 CMakeFiles/bootloader.dir/boot.cpp.o
 .debug_loc     0x000000000000f44d      0x3c4 CMakeFiles/bootloader.dir/bin_files.cpp.o
 .debug_loc     0x000000000000f811     0x22e4 CMakeFiles/bootloader.dir/__/__/__/__/__/gui/common/stdlcd/lcd_1bit.cpp.o
 .debug_loc     0x0000000000011af5      0x115 CMakeFiles/bootloader.dir/__/rotary_encoder_driver.cpp.o
 .debug_loc     0x0000000000011c0a       0x82 CMakeFiles/bootloader.dir/__/bluetooth_driver.cpp.o
 .debug_loc     0x0000000000011c8c      0x60f CMakeFiles/bootloader.dir/__/__/__/__/taranis/i2c_driver.cpp.o
 .debug_loc     0x000000000001229b       0xba /usr/lib/gcc/arm-none-eabi/9.2.1/../../../arm-none-eabi/lib/thumb/v7-m/nofp/libg_nano.a(lib_a-init.o)
 .debug_loc     0x0000000000012355      0x196 /usr/lib/gcc/arm-none-eabi/9.2.1/../../../arm-none-eabi/lib/thumb/v7-m/nofp/libg_nano.a(lib_a-memcmp.o)
 .debug_loc     0x00000000000124eb      0x231 /usr/lib/gcc/arm-none-eabi/9.2.1/../../../arm-none-eabi/lib/thumb/v7-m/nofp/libg_nano.a(lib_a-memset.o)
 .debug_loc     0x000000000001271c       0x25 /usr/lib/gcc/arm-none-eabi/9.2.1/../../../arm-none-eabi/lib/thumb/v7-m/nofp/libg_nano.a(lib_a-strcpy.o)
 .debug_loc     0x0000000000012741       0x25 /usr/lib/gcc/arm-none-eabi/9.2.1/../../../arm-none-eabi/lib/thumb/v7-m/nofp/libg_nano.a(lib_a-strlen-stub.o)
 .debug_loc     0x0000000000012766      0x1dc /usr/lib/gcc/arm-none-eabi/9.2.1/../../../arm-none-eabi/lib/thumb/v7-m/nofp/libg_nano.a(lib_a-strncmp.o)

.debug_aranges  0x0000000000000000     0x12a8
 .debug_aranges
                0x0000000000000000       0x28 CMakeFiles/bootloader.dir/__/f2/system_stm32f2xx.c.o
 .debug_aranges
                0x0000000000000028      0x178 CMakeFiles/bootloader.dir/__/__/__/__/__/thirdparty/STM32F2xx_StdPeriph_Lib_V1.1.0/Libraries/STM32F2xx_StdPeriph_Driver/src/stm32f2xx_rcc.c.o
 .debug_aranges
                0x00000000000001a0       0x48 CMakeFiles/bootloader.dir/__/__/__/__/__/thirdparty/STM32F2xx_StdPeriph_Lib_V1.1.0/Libraries/STM32F2xx_StdPeriph_Driver/src/stm32f2xx_syscfg.c.o
 .debug_aranges
                0x00000000000001e8       0x88 CMakeFiles/bootloader.dir/__/__/__/__/__/thirdparty/STM32F2xx_StdPeriph_Lib_V1.1.0/Libraries/STM32F2xx_StdPeriph_Driver/src/stm32f2xx_gpio.c.o
 .debug_aranges
                0x0000000000000270       0x50 CMakeFiles/bootloader.dir/__/__/__/__/__/thirdparty/STM32F2xx_StdPeriph_Lib_V1.1.0/Libraries/STM32F2xx_StdPeriph_Driver/src/stm32f2xx_exti.c.o
 .debug_aranges
                0x00000000000002c0       0xd8 CMakeFiles/bootloader.dir/__/__/__/__/__/thirdparty/STM32F2xx_StdPeriph_Lib_V1.1.0/Libraries/STM32F2xx_StdPeriph_Driver/src/stm32f2xx_spi.c.o
 .debug_aranges
                0x0000000000000398      0x110 CMakeFiles/bootloader.dir/__/__/__/__/__/thirdparty/STM32F2xx_StdPeriph_Lib_V1.1.0/Libraries/STM32F2xx_StdPeriph_Driver/src/stm32f2xx_i2c.c.o
 .debug_aranges
                0x00000000000004a8       0x40 CMakeFiles/bootloader.dir/__/__/__/__/__/thirdparty/STM32F2xx_StdPeriph_Lib_V1.1.0/Libraries/STM32F2xx_StdPeriph_Driver/src/misc.c.o
 .debug_aranges
                0x00000000000004e8       0x18 CMakeFiles/bootloader.dir/__/__/__/__/__/gui/128x64/fonts.cpp.o
 .debug_aranges
                0x0000000000000500       0x60 CMakeFiles/bootloader.dir/__/__/__/__/__/keys.cpp.o
 .debug_aranges
                0x0000000000000560       0x48 CMakeFiles/bootloader.dir/__/__/__/__/__/strhelpers.cpp.o
 .debug_aranges
                0x00000000000005a8       0x20 CMakeFiles/bootloader.dir/__/__/__/__/__/stamp.cpp.o
 .debug_aranges
                0x00000000000005c8      0x130 CMakeFiles/bootloader.dir/__/__/__/__/__/thirdparty/STM32_USB-Host-Device_Lib_V2.2.0/Libraries/STM32_USB_OTG_Driver/src/usb_core.c.o
 .debug_aranges
                0x00000000000006f8       0x80 CMakeFiles/bootloader.dir/__/__/__/__/__/thirdparty/STM32_USB-Host-Device_Lib_V2.2.0/Libraries/STM32_USB_OTG_Driver/src/usb_dcd.c.o
 .debug_aranges
                0x0000000000000778       0x20 CMakeFiles/bootloader.dir/__/__/__/__/__/thirdparty/STM32_USB-Host-Device_Lib_V2.2.0/Libraries/STM32_USB_OTG_Driver/src/usb_dcd_int.c.o
 .debug_aranges
                0x0000000000000798       0x90 CMakeFiles/bootloader.dir/__/__/__/__/__/thirdparty/STM32_USB-Host-Device_Lib_V2.2.0/Libraries/STM32_USB_Device_Library/Core/src/usbd_core.c.o
 .debug_aranges
                0x0000000000000828       0x50 CMakeFiles/bootloader.dir/__/__/__/__/__/thirdparty/STM32_USB-Host-Device_Lib_V2.2.0/Libraries/STM32_USB_Device_Library/Core/src/usbd_ioreq.c.o
 .debug_aranges
                0x0000000000000878       0x50 CMakeFiles/bootloader.dir/__/__/__/__/__/thirdparty/STM32_USB-Host-Device_Lib_V2.2.0/Libraries/STM32_USB_Device_Library/Core/src/usbd_req.c.o
 .debug_aranges
                0x00000000000008c8       0x18 CMakeFiles/bootloader.dir/__/__/__/__/__/thirdparty/STM32_USB-Host-Device_Lib_V2.2.0/Libraries/STM32_USB_Device_Library/Class/msc/src/usbd_msc_data.c.o
 .debug_aranges
                0x00000000000008e0       0x38 CMakeFiles/bootloader.dir/__/__/__/__/__/thirdparty/STM32_USB-Host-Device_Lib_V2.2.0/Libraries/STM32_USB_Device_Library/Class/msc/src/usbd_msc_scsi.c.o
 .debug_aranges
                0x0000000000000918       0x58 CMakeFiles/bootloader.dir/__/__/__/__/__/thirdparty/STM32_USB-Host-Device_Lib_V2.2.0/Libraries/STM32_USB_Device_Library/Class/msc/src/usbd_msc_bot.c.o
 .debug_aranges
                0x0000000000000970       0x48 CMakeFiles/bootloader.dir/__/__/__/__/__/thirdparty/STM32_USB-Host-Device_Lib_V2.2.0/Libraries/STM32_USB_Device_Library/Class/msc/src/usbd_msc_core.c.o
 .debug_aranges
                0x00000000000009b8       0xd8 CMakeFiles/bootloader.dir/__/__/__/__/__/thirdparty/FatFs/ff.c.o
 .debug_aranges
                0x0000000000000a90       0x28 CMakeFiles/bootloader.dir/__/__/__/__/__/thirdparty/FatFs/option/ccsbcs.c.o
 .debug_aranges
                0x0000000000000ab8       0x70 CMakeFiles/bootloader.dir/__/__/__/__/taranis/lcd_driver_spi.cpp.o
 .debug_aranges
                0x0000000000000b28       0x38 CMakeFiles/bootloader.dir/__/__/__/__/taranis/backlight_driver.cpp.o
 .debug_aranges
                0x0000000000000b60       0x48 CMakeFiles/bootloader.dir/__/__/__/__/taranis/keys_driver.cpp.o
 .debug_aranges
                0x0000000000000ba8       0xc8 CMakeFiles/bootloader.dir/__/__/__/__/taranis/diskio.cpp.o
 .debug_aranges
                0x0000000000000c70       0x58 CMakeFiles/bootloader.dir/__/__/__/__/taranis/board.cpp.o
 .debug_aranges
                0x0000000000000cc8       0x40 CMakeFiles/bootloader.dir/__/pwr_driver.cpp.o
 .debug_aranges
                0x0000000000000d08       0x30 CMakeFiles/bootloader.dir/__/__/__/__/taranis/bootloader/boot_menu.cpp.o
 .debug_aranges
                0x0000000000000d38       0x28 CMakeFiles/bootloader.dir/__/usbd_usr.cpp.o
 .debug_aranges
                0x0000000000000d60       0x80 CMakeFiles/bootloader.dir/__/usbd_storage_msd.cpp.o
 .debug_aranges
                0x0000000000000de0       0x38 CMakeFiles/bootloader.dir/__/delays.cpp.o
 .debug_aranges
                0x0000000000000e18       0x50 CMakeFiles/bootloader.dir/__/usbd_desc.c.o
 .debug_aranges
                0x0000000000000e68       0x48 CMakeFiles/bootloader.dir/__/usb_bsp.c.o
 .debug_aranges
                0x0000000000000eb0       0x58 CMakeFiles/bootloader.dir/__/usb_driver.cpp.o
 .debug_aranges
                0x0000000000000f08       0x50 CMakeFiles/bootloader.dir/__/flash_driver.cpp.o
 .debug_aranges
                0x0000000000000f58       0x20 CMakeFiles/bootloader.dir/init.c.o
 .debug_aranges
                0x0000000000000f78       0x60 CMakeFiles/bootloader.dir/boot.cpp.o
 .debug_aranges
                0x0000000000000fd8       0x50 CMakeFiles/bootloader.dir/bin_files.cpp.o
 .debug_aranges
                0x0000000000001028       0xc8 CMakeFiles/bootloader.dir/__/__/__/__/__/gui/common/stdlcd/lcd_1bit.cpp.o
 .debug_aranges
                0x00000000000010f0       0x48 CMakeFiles/bootloader.dir/__/rotary_encoder_driver.cpp.o
 .debug_aranges
                0x0000000000001138       0x20 CMakeFiles/bootloader.dir/__/bluetooth_driver.cpp.o
 .debug_aranges
                0x0000000000001158       0x70 CMakeFiles/bootloader.dir/__/__/__/__/taranis/i2c_driver.cpp.o
 .debug_aranges
                0x00000000000011c8       0x20 /usr/lib/gcc/arm-none-eabi/9.2.1/../../../arm-none-eabi/lib/thumb/v7-m/nofp/libg_nano.a(lib_a-init.o)
 .debug_aranges
                0x00000000000011e8       0x20 /usr/lib/gcc/arm-none-eabi/9.2.1/../../../arm-none-eabi/lib/thumb/v7-m/nofp/libg_nano.a(lib_a-memcmp.o)
 .debug_aranges
                0x0000000000001208       0x20 /usr/lib/gcc/arm-none-eabi/9.2.1/../../../arm-none-eabi/lib/thumb/v7-m/nofp/libg_nano.a(lib_a-memcpy.o)
 .debug_aranges
                0x0000000000001228       0x20 /usr/lib/gcc/arm-none-eabi/9.2.1/../../../arm-none-eabi/lib/thumb/v7-m/nofp/libg_nano.a(lib_a-memset.o)
 .debug_aranges
                0x0000000000001248       0x20 /usr/lib/gcc/arm-none-eabi/9.2.1/../../../arm-none-eabi/lib/thumb/v7-m/nofp/libg_nano.a(lib_a-strcpy.o)
 .debug_aranges
                0x0000000000001268       0x20 /usr/lib/gcc/arm-none-eabi/9.2.1/../../../arm-none-eabi/lib/thumb/v7-m/nofp/libg_nano.a(lib_a-strlen-stub.o)
 .debug_aranges
                0x0000000000001288       0x20 /usr/lib/gcc/arm-none-eabi/9.2.1/../../../arm-none-eabi/lib/thumb/v7-m/nofp/libg_nano.a(lib_a-strncmp.o)

.debug_ranges   0x0000000000000000     0x1978
 .debug_ranges  0x0000000000000000       0x18 CMakeFiles/bootloader.dir/__/f2/system_stm32f2xx.c.o
 .debug_ranges  0x0000000000000018      0x168 CMakeFiles/bootloader.dir/__/__/__/__/__/thirdparty/STM32F2xx_StdPeriph_Lib_V1.1.0/Libraries/STM32F2xx_StdPeriph_Driver/src/stm32f2xx_rcc.c.o
 .debug_ranges  0x0000000000000180       0x38 CMakeFiles/bootloader.dir/__/__/__/__/__/thirdparty/STM32F2xx_StdPeriph_Lib_V1.1.0/Libraries/STM32F2xx_StdPeriph_Driver/src/stm32f2xx_syscfg.c.o
 .debug_ranges  0x00000000000001b8       0x78 CMakeFiles/bootloader.dir/__/__/__/__/__/thirdparty/STM32F2xx_StdPeriph_Lib_V1.1.0/Libraries/STM32F2xx_StdPeriph_Driver/src/stm32f2xx_gpio.c.o
 .debug_ranges  0x0000000000000230       0x40 CMakeFiles/bootloader.dir/__/__/__/__/__/thirdparty/STM32F2xx_StdPeriph_Lib_V1.1.0/Libraries/STM32F2xx_StdPeriph_Driver/src/stm32f2xx_exti.c.o
 .debug_ranges  0x0000000000000270       0xc8 CMakeFiles/bootloader.dir/__/__/__/__/__/thirdparty/STM32F2xx_StdPeriph_Lib_V1.1.0/Libraries/STM32F2xx_StdPeriph_Driver/src/stm32f2xx_spi.c.o
 .debug_ranges  0x0000000000000338      0x100 CMakeFiles/bootloader.dir/__/__/__/__/__/thirdparty/STM32F2xx_StdPeriph_Lib_V1.1.0/Libraries/STM32F2xx_StdPeriph_Driver/src/stm32f2xx_i2c.c.o
 .debug_ranges  0x0000000000000438       0x30 CMakeFiles/bootloader.dir/__/__/__/__/__/thirdparty/STM32F2xx_StdPeriph_Lib_V1.1.0/Libraries/STM32F2xx_StdPeriph_Driver/src/misc.c.o
 .debug_ranges  0x0000000000000468      0x118 CMakeFiles/bootloader.dir/__/__/__/__/__/keys.cpp.o
 .debug_ranges  0x0000000000000580       0x68 CMakeFiles/bootloader.dir/__/__/__/__/__/strhelpers.cpp.o
 .debug_ranges  0x00000000000005e8       0x28 CMakeFiles/bootloader.dir/__/__/__/__/__/stamp.cpp.o
 .debug_ranges  0x0000000000000610      0x180 CMakeFiles/bootloader.dir/__/__/__/__/__/thirdparty/STM32_USB-Host-Device_Lib_V2.2.0/Libraries/STM32_USB_OTG_Driver/src/usb_core.c.o
 .debug_ranges  0x0000000000000790       0x70 CMakeFiles/bootloader.dir/__/__/__/__/__/thirdparty/STM32_USB-Host-Device_Lib_V2.2.0/Libraries/STM32_USB_OTG_Driver/src/usb_dcd.c.o
 .debug_ranges  0x0000000000000800      0x160 CMakeFiles/bootloader.dir/__/__/__/__/__/thirdparty/STM32_USB-Host-Device_Lib_V2.2.0/Libraries/STM32_USB_OTG_Driver/src/usb_dcd_int.c.o
 .debug_ranges  0x0000000000000960       0xb0 CMakeFiles/bootloader.dir/__/__/__/__/__/thirdparty/STM32_USB-Host-Device_Lib_V2.2.0/Libraries/STM32_USB_Device_Library/Core/src/usbd_core.c.o
 .debug_ranges  0x0000000000000a10       0x40 CMakeFiles/bootloader.dir/__/__/__/__/__/thirdparty/STM32_USB-Host-Device_Lib_V2.2.0/Libraries/STM32_USB_Device_Library/Core/src/usbd_ioreq.c.o
 .debug_ranges  0x0000000000000a50       0xe8 CMakeFiles/bootloader.dir/__/__/__/__/__/thirdparty/STM32_USB-Host-Device_Lib_V2.2.0/Libraries/STM32_USB_Device_Library/Core/src/usbd_req.c.o
 .debug_ranges  0x0000000000000b38       0xf0 CMakeFiles/bootloader.dir/__/__/__/__/__/thirdparty/STM32_USB-Host-Device_Lib_V2.2.0/Libraries/STM32_USB_Device_Library/Class/msc/src/usbd_msc_scsi.c.o
 .debug_ranges  0x0000000000000c28       0x98 CMakeFiles/bootloader.dir/__/__/__/__/__/thirdparty/STM32_USB-Host-Device_Lib_V2.2.0/Libraries/STM32_USB_Device_Library/Class/msc/src/usbd_msc_bot.c.o
 .debug_ranges  0x0000000000000cc0       0x38 CMakeFiles/bootloader.dir/__/__/__/__/__/thirdparty/STM32_USB-Host-Device_Lib_V2.2.0/Libraries/STM32_USB_Device_Library/Class/msc/src/usbd_msc_core.c.o
 .debug_ranges  0x0000000000000cf8      0x1f0 CMakeFiles/bootloader.dir/__/__/__/__/__/thirdparty/FatFs/ff.c.o
 .debug_ranges  0x0000000000000ee8       0x18 CMakeFiles/bootloader.dir/__/__/__/__/__/thirdparty/FatFs/option/ccsbcs.c.o
 .debug_ranges  0x0000000000000f00       0x78 CMakeFiles/bootloader.dir/__/__/__/__/taranis/lcd_driver_spi.cpp.o
 .debug_ranges  0x0000000000000f78       0x28 CMakeFiles/bootloader.dir/__/__/__/__/taranis/backlight_driver.cpp.o
 .debug_ranges  0x0000000000000fa0       0x68 CMakeFiles/bootloader.dir/__/__/__/__/taranis/keys_driver.cpp.o
 .debug_ranges  0x0000000000001008      0x120 CMakeFiles/bootloader.dir/__/__/__/__/taranis/diskio.cpp.o
 .debug_ranges  0x0000000000001128       0x48 CMakeFiles/bootloader.dir/__/__/__/__/taranis/board.cpp.o
 .debug_ranges  0x0000000000001170       0x30 CMakeFiles/bootloader.dir/__/pwr_driver.cpp.o
 .debug_ranges  0x00000000000011a0       0xb8 CMakeFiles/bootloader.dir/__/__/__/__/taranis/bootloader/boot_menu.cpp.o
 .debug_ranges  0x0000000000001258       0x18 CMakeFiles/bootloader.dir/__/usbd_usr.cpp.o
 .debug_ranges  0x0000000000001270       0xf0 CMakeFiles/bootloader.dir/__/usbd_storage_msd.cpp.o
 .debug_ranges  0x0000000000001360       0x28 CMakeFiles/bootloader.dir/__/delays.cpp.o
 .debug_ranges  0x0000000000001388       0x40 CMakeFiles/bootloader.dir/__/usbd_desc.c.o
 .debug_ranges  0x00000000000013c8       0x38 CMakeFiles/bootloader.dir/__/usb_bsp.c.o
 .debug_ranges  0x0000000000001400       0x60 CMakeFiles/bootloader.dir/__/usb_driver.cpp.o
 .debug_ranges  0x0000000000001460       0x58 CMakeFiles/bootloader.dir/__/flash_driver.cpp.o
 .debug_ranges  0x00000000000014b8       0x10 CMakeFiles/bootloader.dir/init.c.o
 .debug_ranges  0x00000000000014c8      0x130 CMakeFiles/bootloader.dir/boot.cpp.o
 .debug_ranges  0x00000000000015f8       0x58 CMakeFiles/bootloader.dir/bin_files.cpp.o
 .debug_ranges  0x0000000000001650      0x230 CMakeFiles/bootloader.dir/__/__/__/__/__/gui/common/stdlcd/lcd_1bit.cpp.o
 .debug_ranges  0x0000000000001880       0x68 CMakeFiles/bootloader.dir/__/rotary_encoder_driver.cpp.o
 .debug_ranges  0x00000000000018e8       0x10 CMakeFiles/bootloader.dir/__/bluetooth_driver.cpp.o
 .debug_ranges  0x00000000000018f8       0x60 CMakeFiles/bootloader.dir/__/__/__/__/taranis/i2c_driver.cpp.o
 .debug_ranges  0x0000000000001958       0x10 /usr/lib/gcc/arm-none-eabi/9.2.1/../../../arm-none-eabi/lib/thumb/v7-m/nofp/libg_nano.a(lib_a-strcpy.o)
 .debug_ranges  0x0000000000001968       0x10 /usr/lib/gcc/arm-none-eabi/9.2.1/../../../arm-none-eabi/lib/thumb/v7-m/nofp/libg_nano.a(lib_a-strlen-stub.o)

.debug_line     0x0000000000000000    0x1f135
 .debug_line    0x0000000000000000      0x3bd CMakeFiles/bootloader.dir/__/f2/system_stm32f2xx.c.o
 .debug_line    0x00000000000003bd      0xca7 CMakeFiles/bootloader.dir/__/__/__/__/__/thirdparty/STM32F2xx_StdPeriph_Lib_V1.1.0/Libraries/STM32F2xx_StdPeriph_Driver/src/stm32f2xx_rcc.c.o
 .debug_line    0x0000000000001064      0x399 CMakeFiles/bootloader.dir/__/__/__/__/__/thirdparty/STM32F2xx_StdPeriph_Lib_V1.1.0/Libraries/STM32F2xx_StdPeriph_Driver/src/stm32f2xx_syscfg.c.o
 .debug_line    0x00000000000013fd      0x6df CMakeFiles/bootloader.dir/__/__/__/__/__/thirdparty/STM32F2xx_StdPeriph_Lib_V1.1.0/Libraries/STM32F2xx_StdPeriph_Driver/src/stm32f2xx_gpio.c.o
 .debug_line    0x0000000000001adc      0x456 CMakeFiles/bootloader.dir/__/__/__/__/__/thirdparty/STM32F2xx_StdPeriph_Lib_V1.1.0/Libraries/STM32F2xx_StdPeriph_Driver/src/stm32f2xx_exti.c.o
 .debug_line    0x0000000000001f32      0x9a1 CMakeFiles/bootloader.dir/__/__/__/__/__/thirdparty/STM32F2xx_StdPeriph_Lib_V1.1.0/Libraries/STM32F2xx_StdPeriph_Driver/src/stm32f2xx_spi.c.o
 .debug_line    0x00000000000028d3      0xaf8 CMakeFiles/bootloader.dir/__/__/__/__/__/thirdparty/STM32F2xx_StdPeriph_Lib_V1.1.0/Libraries/STM32F2xx_StdPeriph_Driver/src/stm32f2xx_i2c.c.o
 .debug_line    0x00000000000033cb      0x41d CMakeFiles/bootloader.dir/__/__/__/__/__/thirdparty/STM32F2xx_StdPeriph_Lib_V1.1.0/Libraries/STM32F2xx_StdPeriph_Driver/src/misc.c.o
 .debug_line    0x00000000000037e8      0xa49 CMakeFiles/bootloader.dir/__/__/__/__/__/gui/128x64/fonts.cpp.o
 .debug_line    0x0000000000004231      0xe23 CMakeFiles/bootloader.dir/__/__/__/__/__/keys.cpp.o
 .debug_line    0x0000000000005054      0xd8c CMakeFiles/bootloader.dir/__/__/__/__/__/strhelpers.cpp.o
 .debug_line    0x0000000000005de0      0xa96 CMakeFiles/bootloader.dir/__/__/__/__/__/stamp.cpp.o
 .debug_line    0x0000000000006876     0x12f6 CMakeFiles/bootloader.dir/__/__/__/__/__/thirdparty/STM32_USB-Host-Device_Lib_V2.2.0/Libraries/STM32_USB_OTG_Driver/src/usb_core.c.o
 .debug_line    0x0000000000007b6c      0x77d CMakeFiles/bootloader.dir/__/__/__/__/__/thirdparty/STM32_USB-Host-Device_Lib_V2.2.0/Libraries/STM32_USB_OTG_Driver/src/usb_dcd.c.o
 .debug_line    0x00000000000082e9      0xe63 CMakeFiles/bootloader.dir/__/__/__/__/__/thirdparty/STM32_USB-Host-Device_Lib_V2.2.0/Libraries/STM32_USB_OTG_Driver/src/usb_dcd_int.c.o
 .debug_line    0x000000000000914c      0x78a CMakeFiles/bootloader.dir/__/__/__/__/__/thirdparty/STM32_USB-Host-Device_Lib_V2.2.0/Libraries/STM32_USB_Device_Library/Core/src/usbd_core.c.o
 .debug_line    0x00000000000098d6      0x467 CMakeFiles/bootloader.dir/__/__/__/__/__/thirdparty/STM32_USB-Host-Device_Lib_V2.2.0/Libraries/STM32_USB_Device_Library/Core/src/usbd_ioreq.c.o
 .debug_line    0x0000000000009d3d      0x906 CMakeFiles/bootloader.dir/__/__/__/__/__/thirdparty/STM32_USB-Host-Device_Lib_V2.2.0/Libraries/STM32_USB_Device_Library/Core/src/usbd_req.c.o
 .debug_line    0x000000000000a643      0x17c CMakeFiles/bootloader.dir/__/__/__/__/__/thirdparty/STM32_USB-Host-Device_Lib_V2.2.0/Libraries/STM32_USB_Device_Library/Class/msc/src/usbd_msc_data.c.o
 .debug_line    0x000000000000a7bf      0xa57 CMakeFiles/bootloader.dir/__/__/__/__/__/thirdparty/STM32_USB-Host-Device_Lib_V2.2.0/Libraries/STM32_USB_Device_Library/Class/msc/src/usbd_msc_scsi.c.o
 .debug_line    0x000000000000b216      0x697 CMakeFiles/bootloader.dir/__/__/__/__/__/thirdparty/STM32_USB-Host-Device_Lib_V2.2.0/Libraries/STM32_USB_Device_Library/Class/msc/src/usbd_msc_bot.c.o
 .debug_line    0x000000000000b8ad      0x585 CMakeFiles/bootloader.dir/__/__/__/__/__/thirdparty/STM32_USB-Host-Device_Lib_V2.2.0/Libraries/STM32_USB_Device_Library/Class/msc/src/usbd_msc_core.c.o
 .debug_line    0x000000000000be32     0x1e59 CMakeFiles/bootloader.dir/__/__/__/__/__/thirdparty/FatFs/ff.c.o
 .debug_line    0x000000000000dc8b      0x222 CMakeFiles/bootloader.dir/__/__/__/__/__/thirdparty/FatFs/option/ccsbcs.c.o
 .debug_line    0x000000000000dead      0xf4c CMakeFiles/bootloader.dir/__/__/__/__/taranis/lcd_driver_spi.cpp.o
 .debug_line    0x000000000000edf9      0xbbf CMakeFiles/bootloader.dir/__/__/__/__/taranis/backlight_driver.cpp.o
 .debug_line    0x000000000000f9b8      0xd6f CMakeFiles/bootloader.dir/__/__/__/__/taranis/keys_driver.cpp.o
 .debug_line    0x0000000000010727     0x17bd CMakeFiles/bootloader.dir/__/__/__/__/taranis/diskio.cpp.o
 .debug_line    0x0000000000011ee4      0xe0b CMakeFiles/bootloader.dir/__/__/__/__/taranis/board.cpp.o
 .debug_line    0x0000000000012cef      0xc90 CMakeFiles/bootloader.dir/__/pwr_driver.cpp.o
 .debug_line    0x000000000001397f      0xd17 CMakeFiles/bootloader.dir/__/__/__/__/taranis/bootloader/boot_menu.cpp.o
 .debug_line    0x0000000000014696      0xa72 CMakeFiles/bootloader.dir/__/usbd_usr.cpp.o
 .debug_line    0x0000000000015108     0x1059 CMakeFiles/bootloader.dir/__/usbd_storage_msd.cpp.o
 .debug_line    0x0000000000016161      0x5dc CMakeFiles/bootloader.dir/__/delays.cpp.o
 .debug_line    0x000000000001673d      0x6ee CMakeFiles/bootloader.dir/__/usbd_desc.c.o
 .debug_line    0x0000000000016e2b      0x6c1 CMakeFiles/bootloader.dir/__/usb_bsp.c.o
 .debug_line    0x00000000000174ec      0xca3 CMakeFiles/bootloader.dir/__/usb_driver.cpp.o
 .debug_line    0x000000000001818f      0xd04 CMakeFiles/bootloader.dir/__/flash_driver.cpp.o
 .debug_line    0x0000000000018e93       0x80 CMakeFiles/bootloader.dir/init.c.o
 .debug_line    0x0000000000018f13     0x1452 CMakeFiles/bootloader.dir/boot.cpp.o
 .debug_line    0x000000000001a365      0xd2d CMakeFiles/bootloader.dir/bin_files.cpp.o
 .debug_line    0x000000000001b092     0x1317 CMakeFiles/bootloader.dir/__/__/__/__/__/gui/common/stdlcd/lcd_1bit.cpp.o
 .debug_line    0x000000000001c3a9      0xd85 CMakeFiles/bootloader.dir/__/rotary_encoder_driver.cpp.o
 .debug_line    0x000000000001d12e      0xb46 CMakeFiles/bootloader.dir/__/bluetooth_driver.cpp.o
 .debug_line    0x000000000001dc74      0x9ea CMakeFiles/bootloader.dir/__/__/__/__/taranis/i2c_driver.cpp.o
 .debug_line    0x000000000001e65e      0x114 /usr/lib/gcc/arm-none-eabi/9.2.1/../../../arm-none-eabi/lib/thumb/v7-m/nofp/libg_nano.a(lib_a-init.o)
 .debug_line    0x000000000001e772      0x1d4 /usr/lib/gcc/arm-none-eabi/9.2.1/../../../arm-none-eabi/lib/thumb/v7-m/nofp/libg_nano.a(lib_a-memcmp.o)
 .debug_line    0x000000000001e946       0xc1 /usr/lib/gcc/arm-none-eabi/9.2.1/../../../arm-none-eabi/lib/thumb/v7-m/nofp/libg_nano.a(lib_a-memcpy.o)
 .debug_line    0x000000000001ea07      0x26b /usr/lib/gcc/arm-none-eabi/9.2.1/../../../arm-none-eabi/lib/thumb/v7-m/nofp/libg_nano.a(lib_a-memset.o)
 .debug_line    0x000000000001ec72      0x149 /usr/lib/gcc/arm-none-eabi/9.2.1/../../../arm-none-eabi/lib/thumb/v7-m/nofp/libg_nano.a(lib_a-strcpy.o)
 .debug_line    0x000000000001edbb      0x14e /usr/lib/gcc/arm-none-eabi/9.2.1/../../../arm-none-eabi/lib/thumb/v7-m/nofp/libg_nano.a(lib_a-strlen-stub.o)
 .debug_line    0x000000000001ef09      0x22c /usr/lib/gcc/arm-none-eabi/9.2.1/../../../arm-none-eabi/lib/thumb/v7-m/nofp/libg_nano.a(lib_a-strncmp.o)

.debug_str      0x0000000000000000     0xf879
 .debug_str     0x0000000000000000      0x3c0 CMakeFiles/bootloader.dir/__/f2/system_stm32f2xx.c.o
                                        0x43d (size before relaxing)
 .debug_str     0x00000000000003c0      0x5bb CMakeFiles/bootloader.dir/__/__/__/__/__/thirdparty/STM32F2xx_StdPeriph_Lib_V1.1.0/Libraries/STM32F2xx_StdPeriph_Driver/src/stm32f2xx_rcc.c.o
                                        0x923 (size before relaxing)
 .debug_str     0x000000000000097b      0x1a2 CMakeFiles/bootloader.dir/__/__/__/__/__/thirdparty/STM32F2xx_StdPeriph_Lib_V1.1.0/Libraries/STM32F2xx_StdPeriph_Driver/src/stm32f2xx_syscfg.c.o
                                        0x3e9 (size before relaxing)
 .debug_str     0x0000000000000b1d      0x2f3 CMakeFiles/bootloader.dir/__/__/__/__/__/thirdparty/STM32F2xx_StdPeriph_Lib_V1.1.0/Libraries/STM32F2xx_StdPeriph_Driver/src/stm32f2xx_gpio.c.o
                                        0x58d (size before relaxing)
 .debug_str     0x0000000000000e10      0x1e3 CMakeFiles/bootloader.dir/__/__/__/__/__/thirdparty/STM32F2xx_StdPeriph_Lib_V1.1.0/Libraries/STM32F2xx_StdPeriph_Driver/src/stm32f2xx_exti.c.o
                                        0x441 (size before relaxing)
 .debug_str     0x0000000000000ff3      0x3c0 CMakeFiles/bootloader.dir/__/__/__/__/__/thirdparty/STM32F2xx_StdPeriph_Lib_V1.1.0/Libraries/STM32F2xx_StdPeriph_Driver/src/stm32f2xx_spi.c.o
                                        0x76e (size before relaxing)
 .debug_str     0x00000000000013b3      0x3e5 CMakeFiles/bootloader.dir/__/__/__/__/__/thirdparty/STM32F2xx_StdPeriph_Lib_V1.1.0/Libraries/STM32F2xx_StdPeriph_Driver/src/stm32f2xx_i2c.c.o
                                        0x761 (size before relaxing)
 .debug_str     0x0000000000001798      0x1dc CMakeFiles/bootloader.dir/__/__/__/__/__/thirdparty/STM32F2xx_StdPeriph_Lib_V1.1.0/Libraries/STM32F2xx_StdPeriph_Driver/src/misc.c.o
                                        0x4ac (size before relaxing)
 .debug_str     0x0000000000001974     0x8429 CMakeFiles/bootloader.dir/__/__/__/__/__/gui/128x64/fonts.cpp.o
                                       0x88d4 (size before relaxing)
 .debug_str     0x0000000000009d9d      0x1d7 CMakeFiles/bootloader.dir/__/__/__/__/__/keys.cpp.o
                                       0x8a78 (size before relaxing)
 .debug_str     0x0000000000009f74      0x135 CMakeFiles/bootloader.dir/__/__/__/__/__/strhelpers.cpp.o
                                       0x89c9 (size before relaxing)
 .debug_str     0x000000000000a0a9       0x81 CMakeFiles/bootloader.dir/__/__/__/__/__/stamp.cpp.o
                                       0x891b (size before relaxing)
 .debug_str     0x000000000000a12a     0x1117 CMakeFiles/bootloader.dir/__/__/__/__/__/thirdparty/STM32_USB-Host-Device_Lib_V2.2.0/Libraries/STM32_USB_OTG_Driver/src/usb_core.c.o
                                       0x1798 (size before relaxing)
 .debug_str     0x000000000000b241      0x15c CMakeFiles/bootloader.dir/__/__/__/__/__/thirdparty/STM32_USB-Host-Device_Lib_V2.2.0/Libraries/STM32_USB_OTG_Driver/src/usb_dcd.c.o
                                        0xd79 (size before relaxing)
 .debug_str     0x000000000000b39d      0x3d4 CMakeFiles/bootloader.dir/__/__/__/__/__/thirdparty/STM32_USB-Host-Device_Lib_V2.2.0/Libraries/STM32_USB_OTG_Driver/src/usb_dcd_int.c.o
                                       0x1768 (size before relaxing)
 .debug_str     0x000000000000b771      0x2bc CMakeFiles/bootloader.dir/__/__/__/__/__/thirdparty/STM32_USB-Host-Device_Lib_V2.2.0/Libraries/STM32_USB_Device_Library/Core/src/usbd_core.c.o
                                        0xdde (size before relaxing)
 .debug_str     0x000000000000ba2d       0xbd CMakeFiles/bootloader.dir/__/__/__/__/__/thirdparty/STM32_USB-Host-Device_Lib_V2.2.0/Libraries/STM32_USB_Device_Library/Core/src/usbd_ioreq.c.o
                                        0xae2 (size before relaxing)
 .debug_str     0x000000000000baea      0x162 CMakeFiles/bootloader.dir/__/__/__/__/__/thirdparty/STM32_USB-Host-Device_Lib_V2.2.0/Libraries/STM32_USB_Device_Library/Core/src/usbd_req.c.o
                                        0xcdb (size before relaxing)
 .debug_str     0x000000000000bc4c       0xd5 CMakeFiles/bootloader.dir/__/__/__/__/__/thirdparty/STM32_USB-Host-Device_Lib_V2.2.0/Libraries/STM32_USB_Device_Library/Class/msc/src/usbd_msc_data.c.o
                                        0x294 (size before relaxing)
 .debug_str     0x000000000000bd21      0x3f1 CMakeFiles/bootloader.dir/__/__/__/__/__/thirdparty/STM32_USB-Host-Device_Lib_V2.2.0/Libraries/STM32_USB_Device_Library/Class/msc/src/usbd_msc_scsi.c.o
                                        0xe69 (size before relaxing)
 .debug_str     0x000000000000c112      0x13c CMakeFiles/bootloader.dir/__/__/__/__/__/thirdparty/STM32_USB-Host-Device_Lib_V2.2.0/Libraries/STM32_USB_Device_Library/Class/msc/src/usbd_msc_bot.c.o
                                        0xd95 (size before relaxing)
 .debug_str     0x000000000000c24e      0x125 CMakeFiles/bootloader.dir/__/__/__/__/__/thirdparty/STM32_USB-Host-Device_Lib_V2.2.0/Libraries/STM32_USB_Device_Library/Class/msc/src/usbd_msc_core.c.o
                                        0x63a (size before relaxing)
 .debug_str     0x000000000000c373      0x3b9 CMakeFiles/bootloader.dir/__/__/__/__/__/thirdparty/FatFs/ff.c.o
                                        0x675 (size before relaxing)
 .debug_str     0x000000000000c72c       0x50 CMakeFiles/bootloader.dir/__/__/__/__/__/thirdparty/FatFs/option/ccsbcs.c.o
                                        0x23a (size before relaxing)
 .debug_str     0x000000000000c77c      0x7a2 CMakeFiles/bootloader.dir/__/__/__/__/taranis/lcd_driver_spi.cpp.o
                                       0x9374 (size before relaxing)
 .debug_str     0x000000000000cf1e      0x11a CMakeFiles/bootloader.dir/__/__/__/__/taranis/backlight_driver.cpp.o
                                       0x8bd6 (size before relaxing)
 .debug_str     0x000000000000d038      0x193 CMakeFiles/bootloader.dir/__/__/__/__/taranis/keys_driver.cpp.o
                                       0x8cb5 (size before relaxing)
 .debug_str     0x000000000000d1cb      0x2b8 CMakeFiles/bootloader.dir/__/__/__/__/taranis/diskio.cpp.o
                                       0x9098 (size before relaxing)
 .debug_str     0x000000000000d483      0x377 CMakeFiles/bootloader.dir/__/__/__/__/taranis/board.cpp.o
                                       0x968b (size before relaxing)
 .debug_str     0x000000000000d7fa       0x68 CMakeFiles/bootloader.dir/__/pwr_driver.cpp.o
                                       0x8c25 (size before relaxing)
 .debug_str     0x000000000000d862      0x336 CMakeFiles/bootloader.dir/__/__/__/__/taranis/bootloader/boot_menu.cpp.o
                                       0x8cf6 (size before relaxing)
 .debug_str     0x000000000000db98       0xed CMakeFiles/bootloader.dir/__/usbd_usr.cpp.o
                                       0x898d (size before relaxing)
 .debug_str     0x000000000000dc85      0x49f CMakeFiles/bootloader.dir/__/usbd_storage_msd.cpp.o
                                       0x9494 (size before relaxing)
 .debug_str     0x000000000000e124      0x12c CMakeFiles/bootloader.dir/__/delays.cpp.o
                                        0x758 (size before relaxing)
 .debug_str     0x000000000000e250      0x19a CMakeFiles/bootloader.dir/__/usbd_desc.c.o
                                        0xb58 (size before relaxing)
 .debug_str     0x000000000000e3ea       0x73 CMakeFiles/bootloader.dir/__/usb_bsp.c.o
                                       0x1390 (size before relaxing)
 .debug_str     0x000000000000e45d      0x180 CMakeFiles/bootloader.dir/__/usb_driver.cpp.o
                                       0x9168 (size before relaxing)
 .debug_str     0x000000000000e5dd       0xf3 CMakeFiles/bootloader.dir/__/flash_driver.cpp.o
                                       0x89a4 (size before relaxing)
 .debug_str     0x000000000000e6d0       0x5c CMakeFiles/bootloader.dir/init.c.o
                                        0x18f (size before relaxing)
 .debug_str     0x000000000000e72c      0x340 CMakeFiles/bootloader.dir/boot.cpp.o
                                       0x9a52 (size before relaxing)
 .debug_str     0x000000000000ea6c       0xd0 CMakeFiles/bootloader.dir/bin_files.cpp.o
                                       0x8c78 (size before relaxing)
 .debug_str     0x000000000000eb3c      0x2d8 CMakeFiles/bootloader.dir/__/__/__/__/__/gui/common/stdlcd/lcd_1bit.cpp.o
                                       0x8cc4 (size before relaxing)
 .debug_str     0x000000000000ee14      0x15a CMakeFiles/bootloader.dir/__/rotary_encoder_driver.cpp.o
                                       0x9406 (size before relaxing)
 .debug_str     0x000000000000ef6e       0x5c CMakeFiles/bootloader.dir/__/bluetooth_driver.cpp.o
                                       0x8ae6 (size before relaxing)
 .debug_str     0x000000000000efca      0x231 CMakeFiles/bootloader.dir/__/__/__/__/taranis/i2c_driver.cpp.o
                                        0xc83 (size before relaxing)
 .debug_str     0x000000000000f1fb      0x179 /usr/lib/gcc/arm-none-eabi/9.2.1/../../../arm-none-eabi/lib/thumb/v7-m/nofp/libg_nano.a(lib_a-init.o)
                                        0x221 (size before relaxing)
 .debug_str     0x000000000000f374      0x10b /usr/lib/gcc/arm-none-eabi/9.2.1/../../../arm-none-eabi/lib/thumb/v7-m/nofp/libg_nano.a(lib_a-memcmp.o)
                                        0x5de (size before relaxing)
 .debug_str     0x000000000000f47f       0xb2 /usr/lib/gcc/arm-none-eabi/9.2.1/../../../arm-none-eabi/lib/thumb/v7-m/nofp/libg_nano.a(lib_a-memcpy.o)
 .debug_str     0x000000000000f531      0x296 /usr/lib/gcc/arm-none-eabi/9.2.1/../../../arm-none-eabi/lib/thumb/v7-m/nofp/libg_nano.a(lib_a-memset.o)
                                        0x907 (size before relaxing)
 .debug_str     0x000000000000f7c7       0x3c /usr/lib/gcc/arm-none-eabi/9.2.1/../../../arm-none-eabi/lib/thumb/v7-m/nofp/libg_nano.a(lib_a-strcpy.o)
                                        0x5e4 (size before relaxing)
 .debug_str     0x000000000000f803       0x41 /usr/lib/gcc/arm-none-eabi/9.2.1/../../../arm-none-eabi/lib/thumb/v7-m/nofp/libg_nano.a(lib_a-strlen-stub.o)
                                        0x5f0 (size before relaxing)
 .debug_str     0x000000000000f844       0x35 /usr/lib/gcc/arm-none-eabi/9.2.1/../../../arm-none-eabi/lib/thumb/v7-m/nofp/libg_nano.a(lib_a-strncmp.o)
                                        0x5e0 (size before relaxing)

.comment        0x0000000000000000       0xa7
 .comment       0x0000000000000000       0x59 CMakeFiles/bootloader.dir/__/f2/system_stm32f2xx.c.o
                                         0x5a (size before relaxing)
 .comment       0x0000000000000059       0x5a CMakeFiles/bootloader.dir/__/__/__/__/__/thirdparty/STM32F2xx_StdPeriph_Lib_V1.1.0/Libraries/STM32F2xx_StdPeriph_Driver/src/stm32f2xx_rcc.c.o
 .comment       0x0000000000000059       0x5a CMakeFiles/bootloader.dir/__/__/__/__/__/thirdparty/STM32F2xx_StdPeriph_Lib_V1.1.0/Libraries/STM32F2xx_StdPeriph_Driver/src/stm32f2xx_syscfg.c.o
 .comment       0x0000000000000059       0x5a CMakeFiles/bootloader.dir/__/__/__/__/__/thirdparty/STM32F2xx_StdPeriph_Lib_V1.1.0/Libraries/STM32F2xx_StdPeriph_Driver/src/stm32f2xx_gpio.c.o
 .comment       0x0000000000000059       0x5a CMakeFiles/bootloader.dir/__/__/__/__/__/thirdparty/STM32F2xx_StdPeriph_Lib_V1.1.0/Libraries/STM32F2xx_StdPeriph_Driver/src/stm32f2xx_exti.c.o
 .comment       0x0000000000000059       0x5a CMakeFiles/bootloader.dir/__/__/__/__/__/thirdparty/STM32F2xx_StdPeriph_Lib_V1.1.0/Libraries/STM32F2xx_StdPeriph_Driver/src/stm32f2xx_spi.c.o
 .comment       0x0000000000000059       0x5a CMakeFiles/bootloader.dir/__/__/__/__/__/thirdparty/STM32F2xx_StdPeriph_Lib_V1.1.0/Libraries/STM32F2xx_StdPeriph_Driver/src/stm32f2xx_i2c.c.o
 .comment       0x0000000000000059       0x5a CMakeFiles/bootloader.dir/__/__/__/__/__/thirdparty/STM32F2xx_StdPeriph_Lib_V1.1.0/Libraries/STM32F2xx_StdPeriph_Driver/src/misc.c.o
 .comment       0x0000000000000059       0x5a CMakeFiles/bootloader.dir/__/__/__/__/__/gui/128x64/fonts.cpp.o
 .comment       0x0000000000000059       0x5a CMakeFiles/bootloader.dir/__/__/__/__/__/keys.cpp.o
 .comment       0x0000000000000059       0x5a CMakeFiles/bootloader.dir/__/__/__/__/__/strhelpers.cpp.o
 .comment       0x0000000000000059       0x5a CMakeFiles/bootloader.dir/__/__/__/__/__/stamp.cpp.o
 .comment       0x0000000000000059       0x5a CMakeFiles/bootloader.dir/__/__/__/__/__/thirdparty/STM32_USB-Host-Device_Lib_V2.2.0/Libraries/STM32_USB_OTG_Driver/src/usb_core.c.o
 .comment       0x0000000000000059       0x5a CMakeFiles/bootloader.dir/__/__/__/__/__/thirdparty/STM32_USB-Host-Device_Lib_V2.2.0/Libraries/STM32_USB_OTG_Driver/src/usb_dcd.c.o
 .comment       0x0000000000000059       0x5a CMakeFiles/bootloader.dir/__/__/__/__/__/thirdparty/STM32_USB-Host-Device_Lib_V2.2.0/Libraries/STM32_USB_OTG_Driver/src/usb_dcd_int.c.o
 .comment       0x0000000000000059       0x5a CMakeFiles/bootloader.dir/__/__/__/__/__/thirdparty/STM32_USB-Host-Device_Lib_V2.2.0/Libraries/STM32_USB_Device_Library/Core/src/usbd_core.c.o
 .comment       0x0000000000000059       0x5a CMakeFiles/bootloader.dir/__/__/__/__/__/thirdparty/STM32_USB-Host-Device_Lib_V2.2.0/Libraries/STM32_USB_Device_Library/Core/src/usbd_ioreq.c.o
 .comment       0x0000000000000059       0x5a CMakeFiles/bootloader.dir/__/__/__/__/__/thirdparty/STM32_USB-Host-Device_Lib_V2.2.0/Libraries/STM32_USB_Device_Library/Core/src/usbd_req.c.o
 .comment       0x0000000000000059       0x5a CMakeFiles/bootloader.dir/__/__/__/__/__/thirdparty/STM32_USB-Host-Device_Lib_V2.2.0/Libraries/STM32_USB_Device_Library/Class/msc/src/usbd_msc_data.c.o
 .comment       0x0000000000000059       0x5a CMakeFiles/bootloader.dir/__/__/__/__/__/thirdparty/STM32_USB-Host-Device_Lib_V2.2.0/Libraries/STM32_USB_Device_Library/Class/msc/src/usbd_msc_scsi.c.o
 .comment       0x0000000000000059       0x5a CMakeFiles/bootloader.dir/__/__/__/__/__/thirdparty/STM32_USB-Host-Device_Lib_V2.2.0/Libraries/STM32_USB_Device_Library/Class/msc/src/usbd_msc_bot.c.o
 .comment       0x0000000000000059       0x5a CMakeFiles/bootloader.dir/__/__/__/__/__/thirdparty/STM32_USB-Host-Device_Lib_V2.2.0/Libraries/STM32_USB_Device_Library/Class/msc/src/usbd_msc_core.c.o
 .comment       0x0000000000000059       0x5a CMakeFiles/bootloader.dir/__/__/__/__/__/thirdparty/FatFs/ff.c.o
 .comment       0x0000000000000059       0x5a CMakeFiles/bootloader.dir/__/__/__/__/__/thirdparty/FatFs/option/ccsbcs.c.o
 .comment       0x0000000000000059       0x5a CMakeFiles/bootloader.dir/__/__/__/__/taranis/lcd_driver_spi.cpp.o
 .comment       0x0000000000000059       0x5a CMakeFiles/bootloader.dir/__/__/__/__/taranis/backlight_driver.cpp.o
 .comment       0x0000000000000059       0x5a CMakeFiles/bootloader.dir/__/__/__/__/taranis/keys_driver.cpp.o
 .comment       0x0000000000000059       0x5a CMakeFiles/bootloader.dir/__/__/__/__/taranis/diskio.cpp.o
 .comment       0x0000000000000059       0x5a CMakeFiles/bootloader.dir/__/__/__/__/taranis/board.cpp.o
 .comment       0x0000000000000059       0x5a CMakeFiles/bootloader.dir/__/pwr_driver.cpp.o
 .comment       0x0000000000000059       0x5a CMakeFiles/bootloader.dir/__/__/__/__/taranis/bootloader/boot_menu.cpp.o
 .comment       0x0000000000000059       0x5a CMakeFiles/bootloader.dir/__/usbd_usr.cpp.o
 .comment       0x0000000000000059       0x5a CMakeFiles/bootloader.dir/__/usbd_storage_msd.cpp.o
 .comment       0x0000000000000059       0x5a CMakeFiles/bootloader.dir/__/delays.cpp.o
 .comment       0x0000000000000059       0x5a CMakeFiles/bootloader.dir/__/usbd_desc.c.o
 .comment       0x0000000000000059       0x5a CMakeFiles/bootloader.dir/__/usb_bsp.c.o
 .comment       0x0000000000000059       0x5a CMakeFiles/bootloader.dir/__/usb_driver.cpp.o
 .comment       0x0000000000000059       0x5a CMakeFiles/bootloader.dir/__/flash_driver.cpp.o
 .comment       0x0000000000000059       0x5a CMakeFiles/bootloader.dir/init.c.o
 .comment       0x0000000000000059       0x5a CMakeFiles/bootloader.dir/boot.cpp.o
 .comment       0x0000000000000059       0x5a CMakeFiles/bootloader.dir/bin_files.cpp.o
 .comment       0x0000000000000059       0x5a CMakeFiles/bootloader.dir/__/__/__/__/__/gui/common/stdlcd/lcd_1bit.cpp.o
 .comment       0x0000000000000059       0x5a CMakeFiles/bootloader.dir/__/rotary_encoder_driver.cpp.o
 .comment       0x0000000000000059       0x5a CMakeFiles/bootloader.dir/__/bluetooth_driver.cpp.o
 .comment       0x0000000000000059       0x5a CMakeFiles/bootloader.dir/__/__/__/__/taranis/i2c_driver.cpp.o
 .comment       0x0000000000000059       0x4e /usr/lib/gcc/arm-none-eabi/9.2.1/../../../arm-none-eabi/lib/thumb/v7-m/nofp/libg_nano.a(lib_a-init.o)
                                         0x4f (size before relaxing)
 .comment       0x00000000000000a7       0x4f /usr/lib/gcc/arm-none-eabi/9.2.1/../../../arm-none-eabi/lib/thumb/v7-m/nofp/libg_nano.a(lib_a-memcmp.o)
 .comment       0x00000000000000a7       0x4f /usr/lib/gcc/arm-none-eabi/9.2.1/../../../arm-none-eabi/lib/thumb/v7-m/nofp/libg_nano.a(lib_a-memset.o)
 .comment       0x00000000000000a7       0x4f /usr/lib/gcc/arm-none-eabi/9.2.1/../../../arm-none-eabi/lib/thumb/v7-m/nofp/libg_nano.a(lib_a-strcpy.o)
 .comment       0x00000000000000a7       0x4f /usr/lib/gcc/arm-none-eabi/9.2.1/../../../arm-none-eabi/lib/thumb/v7-m/nofp/libg_nano.a(lib_a-strlen-stub.o)
 .comment       0x00000000000000a7       0x4f /usr/lib/gcc/arm-none-eabi/9.2.1/../../../arm-none-eabi/lib/thumb/v7-m/nofp/libg_nano.a(lib_a-strncmp.o)

.debug_frame    0x0000000000000000     0x2b60
 .debug_frame   0x0000000000000000       0x40 CMakeFiles/bootloader.dir/__/f2/system_stm32f2xx.c.o
 .debug_frame   0x0000000000000040      0x2e8 CMakeFiles/bootloader.dir/__/__/__/__/__/thirdparty/STM32F2xx_StdPeriph_Lib_V1.1.0/Libraries/STM32F2xx_StdPeriph_Driver/src/stm32f2xx_rcc.c.o
 .debug_frame   0x0000000000000328       0x84 CMakeFiles/bootloader.dir/__/__/__/__/__/thirdparty/STM32F2xx_StdPeriph_Lib_V1.1.0/Libraries/STM32F2xx_StdPeriph_Driver/src/stm32f2xx_syscfg.c.o
 .debug_frame   0x00000000000003ac      0x120 CMakeFiles/bootloader.dir/__/__/__/__/__/thirdparty/STM32F2xx_StdPeriph_Lib_V1.1.0/Libraries/STM32F2xx_StdPeriph_Driver/src/stm32f2xx_gpio.c.o
 .debug_frame   0x00000000000004cc       0x9c CMakeFiles/bootloader.dir/__/__/__/__/__/thirdparty/STM32F2xx_StdPeriph_Lib_V1.1.0/Libraries/STM32F2xx_StdPeriph_Driver/src/stm32f2xx_exti.c.o
 .debug_frame   0x0000000000000568      0x1c8 CMakeFiles/bootloader.dir/__/__/__/__/__/thirdparty/STM32F2xx_StdPeriph_Lib_V1.1.0/Libraries/STM32F2xx_StdPeriph_Driver/src/stm32f2xx_spi.c.o
 .debug_frame   0x0000000000000730      0x258 CMakeFiles/bootloader.dir/__/__/__/__/__/thirdparty/STM32F2xx_StdPeriph_Lib_V1.1.0/Libraries/STM32F2xx_StdPeriph_Driver/src/stm32f2xx_i2c.c.o
 .debug_frame   0x0000000000000988       0x6c CMakeFiles/bootloader.dir/__/__/__/__/__/thirdparty/STM32F2xx_StdPeriph_Lib_V1.1.0/Libraries/STM32F2xx_StdPeriph_Driver/src/misc.c.o
 .debug_frame   0x00000000000009f4       0xb0 CMakeFiles/bootloader.dir/__/__/__/__/__/keys.cpp.o
 .debug_frame   0x0000000000000aa4       0xb8 CMakeFiles/bootloader.dir/__/__/__/__/__/strhelpers.cpp.o
 .debug_frame   0x0000000000000b5c       0x30 CMakeFiles/bootloader.dir/__/__/__/__/__/stamp.cpp.o
 .debug_frame   0x0000000000000b8c      0x318 CMakeFiles/bootloader.dir/__/__/__/__/__/thirdparty/STM32_USB-Host-Device_Lib_V2.2.0/Libraries/STM32_USB_OTG_Driver/src/usb_core.c.o
 .debug_frame   0x0000000000000ea4      0x140 CMakeFiles/bootloader.dir/__/__/__/__/__/thirdparty/STM32_USB-Host-Device_Lib_V2.2.0/Libraries/STM32_USB_OTG_Driver/src/usb_dcd.c.o
 .debug_frame   0x0000000000000fe4       0x40 CMakeFiles/bootloader.dir/__/__/__/__/__/thirdparty/STM32_USB-Host-Device_Lib_V2.2.0/Libraries/STM32_USB_OTG_Driver/src/usb_dcd_int.c.o
 .debug_frame   0x0000000000001024      0x194 CMakeFiles/bootloader.dir/__/__/__/__/__/thirdparty/STM32_USB-Host-Device_Lib_V2.2.0/Libraries/STM32_USB_Device_Library/Core/src/usbd_core.c.o
 .debug_frame   0x00000000000011b8       0xb0 CMakeFiles/bootloader.dir/__/__/__/__/__/thirdparty/STM32_USB-Host-Device_Lib_V2.2.0/Libraries/STM32_USB_Device_Library/Core/src/usbd_ioreq.c.o
 .debug_frame   0x0000000000001268       0xd0 CMakeFiles/bootloader.dir/__/__/__/__/__/thirdparty/STM32_USB-Host-Device_Lib_V2.2.0/Libraries/STM32_USB_Device_Library/Core/src/usbd_req.c.o
 .debug_frame   0x0000000000001338       0x88 CMakeFiles/bootloader.dir/__/__/__/__/__/thirdparty/STM32_USB-Host-Device_Lib_V2.2.0/Libraries/STM32_USB_Device_Library/Class/msc/src/usbd_msc_scsi.c.o
 .debug_frame   0x00000000000013c0      0x10c CMakeFiles/bootloader.dir/__/__/__/__/__/thirdparty/STM32_USB-Host-Device_Lib_V2.2.0/Libraries/STM32_USB_Device_Library/Class/msc/src/usbd_msc_bot.c.o
 .debug_frame   0x00000000000014cc       0xa4 CMakeFiles/bootloader.dir/__/__/__/__/__/thirdparty/STM32_USB-Host-Device_Lib_V2.2.0/Libraries/STM32_USB_Device_Library/Class/msc/src/usbd_msc_core.c.o
 .debug_frame   0x0000000000001570      0x330 CMakeFiles/bootloader.dir/__/__/__/__/__/thirdparty/FatFs/ff.c.o
 .debug_frame   0x00000000000018a0       0x44 CMakeFiles/bootloader.dir/__/__/__/__/__/thirdparty/FatFs/option/ccsbcs.c.o
 .debug_frame   0x00000000000018e4      0x128 CMakeFiles/bootloader.dir/__/__/__/__/taranis/lcd_driver_spi.cpp.o
 .debug_frame   0x0000000000001a0c       0x5c CMakeFiles/bootloader.dir/__/__/__/__/taranis/backlight_driver.cpp.o
 .debug_frame   0x0000000000001a68       0xa4 CMakeFiles/bootloader.dir/__/__/__/__/taranis/keys_driver.cpp.o
 .debug_frame   0x0000000000001b0c      0x23c CMakeFiles/bootloader.dir/__/__/__/__/taranis/diskio.cpp.o
 .debug_frame   0x0000000000001d48       0xb8 CMakeFiles/bootloader.dir/__/__/__/__/taranis/board.cpp.o
 .debug_frame   0x0000000000001e00       0x84 CMakeFiles/bootloader.dir/__/pwr_driver.cpp.o
 .debug_frame   0x0000000000001e84       0x80 CMakeFiles/bootloader.dir/__/__/__/__/taranis/bootloader/boot_menu.cpp.o
 .debug_frame   0x0000000000001f04       0x80 CMakeFiles/bootloader.dir/__/usbd_usr.cpp.o
 .debug_frame   0x0000000000001f84      0x164 CMakeFiles/bootloader.dir/__/usbd_storage_msd.cpp.o
 .debug_frame   0x00000000000020e8       0x68 CMakeFiles/bootloader.dir/__/delays.cpp.o
 .debug_frame   0x0000000000002150       0xb4 CMakeFiles/bootloader.dir/__/usbd_desc.c.o
 .debug_frame   0x0000000000002204       0x7c CMakeFiles/bootloader.dir/__/usb_bsp.c.o
 .debug_frame   0x0000000000002280       0xa8 CMakeFiles/bootloader.dir/__/usb_driver.cpp.o
 .debug_frame   0x0000000000002328       0x9c CMakeFiles/bootloader.dir/__/flash_driver.cpp.o
 .debug_frame   0x00000000000023c4       0x30 CMakeFiles/bootloader.dir/init.c.o
 .debug_frame   0x00000000000023f4       0xf8 CMakeFiles/bootloader.dir/boot.cpp.o
 .debug_frame   0x00000000000024ec       0xd0 CMakeFiles/bootloader.dir/bin_files.cpp.o
 .debug_frame   0x00000000000025bc      0x25c CMakeFiles/bootloader.dir/__/__/__/__/__/gui/common/stdlcd/lcd_1bit.cpp.o
 .debug_frame   0x0000000000002818       0xa8 CMakeFiles/bootloader.dir/__/rotary_encoder_driver.cpp.o
 .debug_frame   0x00000000000028c0       0x30 CMakeFiles/bootloader.dir/__/bluetooth_driver.cpp.o
 .debug_frame   0x00000000000028f0      0x14c CMakeFiles/bootloader.dir/__/__/__/__/taranis/i2c_driver.cpp.o
 .debug_frame   0x0000000000002a3c       0x2c /usr/lib/gcc/arm-none-eabi/9.2.1/../../../arm-none-eabi/lib/thumb/v7-m/nofp/libg_nano.a(lib_a-init.o)
 .debug_frame   0x0000000000002a68       0x38 /usr/lib/gcc/arm-none-eabi/9.2.1/../../../arm-none-eabi/lib/thumb/v7-m/nofp/libg_nano.a(lib_a-memcmp.o)
 .debug_frame   0x0000000000002aa0       0x38 /usr/lib/gcc/arm-none-eabi/9.2.1/../../../arm-none-eabi/lib/thumb/v7-m/nofp/libg_nano.a(lib_a-memset.o)
 .debug_frame   0x0000000000002ad8       0x20 /usr/lib/gcc/arm-none-eabi/9.2.1/../../../arm-none-eabi/lib/thumb/v7-m/nofp/libg_nano.a(lib_a-strcpy.o)
 .debug_frame   0x0000000000002af8       0x20 /usr/lib/gcc/arm-none-eabi/9.2.1/../../../arm-none-eabi/lib/thumb/v7-m/nofp/libg_nano.a(lib_a-strlen-stub.o)
 .debug_frame   0x0000000000002b18       0x48 /usr/lib/gcc/arm-none-eabi/9.2.1/../../../arm-none-eabi/lib/thumb/v7-m/nofp/libg_nano.a(lib_a-strncmp.o)

Cross Reference Table

Symbol                                            File
ADC_IRQHandler                                    CMakeFiles/bootloader.dir/__/__/__/__/__/thirdparty/STM32F2xx_StdPeriph_Lib_V1.1.0/Libraries/CMSIS/Device/ST/STM32F2xx/Source/Templates/gcc_ride7/startup_stm32f2xx.s.o
AHBPrescTable                                     CMakeFiles/bootloader.dir/__/f2/system_stm32f2xx.c.o
BlockCount                                        CMakeFiles/bootloader.dir/bin_files.cpp.o
                                                  CMakeFiles/bootloader.dir/boot.cpp.o
Block_buffer                                      CMakeFiles/bootloader.dir/bin_files.cpp.o
                                                  CMakeFiles/bootloader.dir/boot.cpp.o
                                                  CMakeFiles/bootloader.dir/__/__/__/__/taranis/bootloader/boot_menu.cpp.o
BusFault_Handler                                  CMakeFiles/bootloader.dir/__/__/__/__/__/thirdparty/STM32F2xx_StdPeriph_Lib_V1.1.0/Libraries/CMSIS/Device/ST/STM32F2xx/Source/Templates/gcc_ride7/startup_stm32f2xx.s.o
CAN1_RX0_IRQHandler                               CMakeFiles/bootloader.dir/__/__/__/__/__/thirdparty/STM32F2xx_StdPeriph_Lib_V1.1.0/Libraries/CMSIS/Device/ST/STM32F2xx/Source/Templates/gcc_ride7/startup_stm32f2xx.s.o
CAN1_RX1_IRQHandler                               CMakeFiles/bootloader.dir/__/__/__/__/__/thirdparty/STM32F2xx_StdPeriph_Lib_V1.1.0/Libraries/CMSIS/Device/ST/STM32F2xx/Source/Templates/gcc_ride7/startup_stm32f2xx.s.o
CAN1_SCE_IRQHandler                               CMakeFiles/bootloader.dir/__/__/__/__/__/thirdparty/STM32F2xx_StdPeriph_Lib_V1.1.0/Libraries/CMSIS/Device/ST/STM32F2xx/Source/Templates/gcc_ride7/startup_stm32f2xx.s.o
CAN1_TX_IRQHandler                                CMakeFiles/bootloader.dir/__/__/__/__/__/thirdparty/STM32F2xx_StdPeriph_Lib_V1.1.0/Libraries/CMSIS/Device/ST/STM32F2xx/Source/Templates/gcc_ride7/startup_stm32f2xx.s.o
CAN2_RX0_IRQHandler                               CMakeFiles/bootloader.dir/__/__/__/__/__/thirdparty/STM32F2xx_StdPeriph_Lib_V1.1.0/Libraries/CMSIS/Device/ST/STM32F2xx/Source/Templates/gcc_ride7/startup_stm32f2xx.s.o
CAN2_RX1_IRQHandler                               CMakeFiles/bootloader.dir/__/__/__/__/__/thirdparty/STM32F2xx_StdPeriph_Lib_V1.1.0/Libraries/CMSIS/Device/ST/STM32F2xx/Source/Templates/gcc_ride7/startup_stm32f2xx.s.o
CAN2_SCE_IRQHandler                               CMakeFiles/bootloader.dir/__/__/__/__/__/thirdparty/STM32F2xx_StdPeriph_Lib_V1.1.0/Libraries/CMSIS/Device/ST/STM32F2xx/Source/Templates/gcc_ride7/startup_stm32f2xx.s.o
CAN2_TX_IRQHandler                                CMakeFiles/bootloader.dir/__/__/__/__/__/thirdparty/STM32F2xx_StdPeriph_Lib_V1.1.0/Libraries/CMSIS/Device/ST/STM32F2xx/Source/Templates/gcc_ride7/startup_stm32f2xx.s.o
CRYP_IRQHandler                                   CMakeFiles/bootloader.dir/__/__/__/__/__/thirdparty/STM32F2xx_StdPeriph_Lib_V1.1.0/Libraries/CMSIS/Device/ST/STM32F2xx/Source/Templates/gcc_ride7/startup_stm32f2xx.s.o
CardType                                          CMakeFiles/bootloader.dir/__/__/__/__/taranis/diskio.cpp.o
DCD_DevConnect                                    CMakeFiles/bootloader.dir/__/__/__/__/__/thirdparty/STM32_USB-Host-Device_Lib_V2.2.0/Libraries/STM32_USB_OTG_Driver/src/usb_dcd.c.o
DCD_DevDisconnect                                 CMakeFiles/bootloader.dir/__/__/__/__/__/thirdparty/STM32_USB-Host-Device_Lib_V2.2.0/Libraries/STM32_USB_OTG_Driver/src/usb_dcd.c.o
DCD_EP_Close                                      CMakeFiles/bootloader.dir/__/__/__/__/__/thirdparty/STM32_USB-Host-Device_Lib_V2.2.0/Libraries/STM32_USB_OTG_Driver/src/usb_dcd.c.o
                                                  CMakeFiles/bootloader.dir/__/__/__/__/__/thirdparty/STM32_USB-Host-Device_Lib_V2.2.0/Libraries/STM32_USB_Device_Library/Class/msc/src/usbd_msc_core.c.o
DCD_EP_ClrStall                                   CMakeFiles/bootloader.dir/__/__/__/__/__/thirdparty/STM32_USB-Host-Device_Lib_V2.2.0/Libraries/STM32_USB_OTG_Driver/src/usb_dcd.c.o
                                                  CMakeFiles/bootloader.dir/__/__/__/__/__/thirdparty/STM32_USB-Host-Device_Lib_V2.2.0/Libraries/STM32_USB_Device_Library/Core/src/usbd_req.c.o
DCD_EP_Flush                                      CMakeFiles/bootloader.dir/__/__/__/__/__/thirdparty/STM32_USB-Host-Device_Lib_V2.2.0/Libraries/STM32_USB_OTG_Driver/src/usb_dcd.c.o
                                                  CMakeFiles/bootloader.dir/__/__/__/__/__/thirdparty/STM32_USB-Host-Device_Lib_V2.2.0/Libraries/STM32_USB_Device_Library/Class/msc/src/usbd_msc_core.c.o
                                                  CMakeFiles/bootloader.dir/__/__/__/__/__/thirdparty/STM32_USB-Host-Device_Lib_V2.2.0/Libraries/STM32_USB_Device_Library/Class/msc/src/usbd_msc_bot.c.o
DCD_EP_Open                                       CMakeFiles/bootloader.dir/__/__/__/__/__/thirdparty/STM32_USB-Host-Device_Lib_V2.2.0/Libraries/STM32_USB_OTG_Driver/src/usb_dcd.c.o
                                                  CMakeFiles/bootloader.dir/__/__/__/__/__/thirdparty/STM32_USB-Host-Device_Lib_V2.2.0/Libraries/STM32_USB_Device_Library/Class/msc/src/usbd_msc_core.c.o
                                                  CMakeFiles/bootloader.dir/__/__/__/__/__/thirdparty/STM32_USB-Host-Device_Lib_V2.2.0/Libraries/STM32_USB_Device_Library/Core/src/usbd_core.c.o
DCD_EP_PrepareRx                                  CMakeFiles/bootloader.dir/__/__/__/__/__/thirdparty/STM32_USB-Host-Device_Lib_V2.2.0/Libraries/STM32_USB_OTG_Driver/src/usb_dcd.c.o
                                                  CMakeFiles/bootloader.dir/__/__/__/__/__/thirdparty/STM32_USB-Host-Device_Lib_V2.2.0/Libraries/STM32_USB_Device_Library/Class/msc/src/usbd_msc_bot.c.o
                                                  CMakeFiles/bootloader.dir/__/__/__/__/__/thirdparty/STM32_USB-Host-Device_Lib_V2.2.0/Libraries/STM32_USB_Device_Library/Class/msc/src/usbd_msc_scsi.c.o
                                                  CMakeFiles/bootloader.dir/__/__/__/__/__/thirdparty/STM32_USB-Host-Device_Lib_V2.2.0/Libraries/STM32_USB_Device_Library/Core/src/usbd_ioreq.c.o
                                                  CMakeFiles/bootloader.dir/__/__/__/__/__/thirdparty/STM32_USB-Host-Device_Lib_V2.2.0/Libraries/STM32_USB_Device_Library/Core/src/usbd_core.c.o
DCD_EP_SetAddress                                 CMakeFiles/bootloader.dir/__/__/__/__/__/thirdparty/STM32_USB-Host-Device_Lib_V2.2.0/Libraries/STM32_USB_OTG_Driver/src/usb_dcd.c.o
                                                  CMakeFiles/bootloader.dir/__/__/__/__/__/thirdparty/STM32_USB-Host-Device_Lib_V2.2.0/Libraries/STM32_USB_Device_Library/Core/src/usbd_req.c.o
DCD_EP_Stall                                      CMakeFiles/bootloader.dir/__/__/__/__/__/thirdparty/STM32_USB-Host-Device_Lib_V2.2.0/Libraries/STM32_USB_OTG_Driver/src/usb_dcd.c.o
                                                  CMakeFiles/bootloader.dir/__/__/__/__/__/thirdparty/STM32_USB-Host-Device_Lib_V2.2.0/Libraries/STM32_USB_Device_Library/Class/msc/src/usbd_msc_bot.c.o
                                                  CMakeFiles/bootloader.dir/__/__/__/__/__/thirdparty/STM32_USB-Host-Device_Lib_V2.2.0/Libraries/STM32_USB_Device_Library/Core/src/usbd_req.c.o
                                                  CMakeFiles/bootloader.dir/__/__/__/__/__/thirdparty/STM32_USB-Host-Device_Lib_V2.2.0/Libraries/STM32_USB_Device_Library/Core/src/usbd_core.c.o
DCD_EP_Tx                                         CMakeFiles/bootloader.dir/__/__/__/__/__/thirdparty/STM32_USB-Host-Device_Lib_V2.2.0/Libraries/STM32_USB_OTG_Driver/src/usb_dcd.c.o
                                                  CMakeFiles/bootloader.dir/__/__/__/__/__/thirdparty/STM32_USB-Host-Device_Lib_V2.2.0/Libraries/STM32_USB_Device_Library/Class/msc/src/usbd_msc_bot.c.o
                                                  CMakeFiles/bootloader.dir/__/__/__/__/__/thirdparty/STM32_USB-Host-Device_Lib_V2.2.0/Libraries/STM32_USB_Device_Library/Class/msc/src/usbd_msc_scsi.c.o
                                                  CMakeFiles/bootloader.dir/__/__/__/__/__/thirdparty/STM32_USB-Host-Device_Lib_V2.2.0/Libraries/STM32_USB_Device_Library/Core/src/usbd_ioreq.c.o
DCD_GetEPStatus                                   CMakeFiles/bootloader.dir/__/__/__/__/__/thirdparty/STM32_USB-Host-Device_Lib_V2.2.0/Libraries/STM32_USB_OTG_Driver/src/usb_dcd.c.o
DCD_Init                                          CMakeFiles/bootloader.dir/__/__/__/__/__/thirdparty/STM32_USB-Host-Device_Lib_V2.2.0/Libraries/STM32_USB_OTG_Driver/src/usb_dcd.c.o
                                                  CMakeFiles/bootloader.dir/__/__/__/__/__/thirdparty/STM32_USB-Host-Device_Lib_V2.2.0/Libraries/STM32_USB_Device_Library/Core/src/usbd_core.c.o
DCD_SetEPStatus                                   CMakeFiles/bootloader.dir/__/__/__/__/__/thirdparty/STM32_USB-Host-Device_Lib_V2.2.0/Libraries/STM32_USB_OTG_Driver/src/usb_dcd.c.o
DCMI_IRQHandler                                   CMakeFiles/bootloader.dir/__/__/__/__/__/thirdparty/STM32F2xx_StdPeriph_Lib_V1.1.0/Libraries/CMSIS/Device/ST/STM32F2xx/Source/Templates/gcc_ride7/startup_stm32f2xx.s.o
DMA1_Stream0_IRQHandler                           CMakeFiles/bootloader.dir/__/__/__/__/__/thirdparty/STM32F2xx_StdPeriph_Lib_V1.1.0/Libraries/CMSIS/Device/ST/STM32F2xx/Source/Templates/gcc_ride7/startup_stm32f2xx.s.o
DMA1_Stream1_IRQHandler                           CMakeFiles/bootloader.dir/__/__/__/__/__/thirdparty/STM32F2xx_StdPeriph_Lib_V1.1.0/Libraries/CMSIS/Device/ST/STM32F2xx/Source/Templates/gcc_ride7/startup_stm32f2xx.s.o
DMA1_Stream2_IRQHandler                           CMakeFiles/bootloader.dir/__/__/__/__/__/thirdparty/STM32F2xx_StdPeriph_Lib_V1.1.0/Libraries/CMSIS/Device/ST/STM32F2xx/Source/Templates/gcc_ride7/startup_stm32f2xx.s.o
DMA1_Stream3_IRQHandler                           CMakeFiles/bootloader.dir/__/__/__/__/__/thirdparty/STM32F2xx_StdPeriph_Lib_V1.1.0/Libraries/CMSIS/Device/ST/STM32F2xx/Source/Templates/gcc_ride7/startup_stm32f2xx.s.o
DMA1_Stream4_IRQHandler                           CMakeFiles/bootloader.dir/__/__/__/__/__/thirdparty/STM32F2xx_StdPeriph_Lib_V1.1.0/Libraries/CMSIS/Device/ST/STM32F2xx/Source/Templates/gcc_ride7/startup_stm32f2xx.s.o
DMA1_Stream5_IRQHandler                           CMakeFiles/bootloader.dir/__/__/__/__/__/thirdparty/STM32F2xx_StdPeriph_Lib_V1.1.0/Libraries/CMSIS/Device/ST/STM32F2xx/Source/Templates/gcc_ride7/startup_stm32f2xx.s.o
DMA1_Stream6_IRQHandler                           CMakeFiles/bootloader.dir/__/__/__/__/__/thirdparty/STM32F2xx_StdPeriph_Lib_V1.1.0/Libraries/CMSIS/Device/ST/STM32F2xx/Source/Templates/gcc_ride7/startup_stm32f2xx.s.o
DMA1_Stream7_IRQHandler                           CMakeFiles/bootloader.dir/__/__/__/__/taranis/lcd_driver_spi.cpp.o
                                                  CMakeFiles/bootloader.dir/__/__/__/__/__/thirdparty/STM32F2xx_StdPeriph_Lib_V1.1.0/Libraries/CMSIS/Device/ST/STM32F2xx/Source/Templates/gcc_ride7/startup_stm32f2xx.s.o
DMA2_Stream0_IRQHandler                           CMakeFiles/bootloader.dir/__/__/__/__/__/thirdparty/STM32F2xx_StdPeriph_Lib_V1.1.0/Libraries/CMSIS/Device/ST/STM32F2xx/Source/Templates/gcc_ride7/startup_stm32f2xx.s.o
DMA2_Stream1_IRQHandler                           CMakeFiles/bootloader.dir/__/__/__/__/__/thirdparty/STM32F2xx_StdPeriph_Lib_V1.1.0/Libraries/CMSIS/Device/ST/STM32F2xx/Source/Templates/gcc_ride7/startup_stm32f2xx.s.o
DMA2_Stream2_IRQHandler                           CMakeFiles/bootloader.dir/__/__/__/__/__/thirdparty/STM32F2xx_StdPeriph_Lib_V1.1.0/Libraries/CMSIS/Device/ST/STM32F2xx/Source/Templates/gcc_ride7/startup_stm32f2xx.s.o
DMA2_Stream3_IRQHandler                           CMakeFiles/bootloader.dir/__/__/__/__/__/thirdparty/STM32F2xx_StdPeriph_Lib_V1.1.0/Libraries/CMSIS/Device/ST/STM32F2xx/Source/Templates/gcc_ride7/startup_stm32f2xx.s.o
DMA2_Stream4_IRQHandler                           CMakeFiles/bootloader.dir/__/__/__/__/__/thirdparty/STM32F2xx_StdPeriph_Lib_V1.1.0/Libraries/CMSIS/Device/ST/STM32F2xx/Source/Templates/gcc_ride7/startup_stm32f2xx.s.o
DMA2_Stream5_IRQHandler                           CMakeFiles/bootloader.dir/__/__/__/__/__/thirdparty/STM32F2xx_StdPeriph_Lib_V1.1.0/Libraries/CMSIS/Device/ST/STM32F2xx/Source/Templates/gcc_ride7/startup_stm32f2xx.s.o
DMA2_Stream6_IRQHandler                           CMakeFiles/bootloader.dir/__/__/__/__/__/thirdparty/STM32F2xx_StdPeriph_Lib_V1.1.0/Libraries/CMSIS/Device/ST/STM32F2xx/Source/Templates/gcc_ride7/startup_stm32f2xx.s.o
DMA2_Stream7_IRQHandler                           CMakeFiles/bootloader.dir/__/__/__/__/__/thirdparty/STM32F2xx_StdPeriph_Lib_V1.1.0/Libraries/CMSIS/Device/ST/STM32F2xx/Source/Templates/gcc_ride7/startup_stm32f2xx.s.o
DebugMon_Handler                                  CMakeFiles/bootloader.dir/__/__/__/__/__/thirdparty/STM32F2xx_StdPeriph_Lib_V1.1.0/Libraries/CMSIS/Device/ST/STM32F2xx/Source/Templates/gcc_ride7/startup_stm32f2xx.s.o
Default_Handler                                   CMakeFiles/bootloader.dir/__/__/__/__/__/thirdparty/STM32F2xx_StdPeriph_Lib_V1.1.0/Libraries/CMSIS/Device/ST/STM32F2xx/Source/Templates/gcc_ride7/startup_stm32f2xx.s.o
ETH_IRQHandler                                    CMakeFiles/bootloader.dir/__/__/__/__/__/thirdparty/STM32F2xx_StdPeriph_Lib_V1.1.0/Libraries/CMSIS/Device/ST/STM32F2xx/Source/Templates/gcc_ride7/startup_stm32f2xx.s.o
ETH_WKUP_IRQHandler                               CMakeFiles/bootloader.dir/__/__/__/__/__/thirdparty/STM32F2xx_StdPeriph_Lib_V1.1.0/Libraries/CMSIS/Device/ST/STM32F2xx/Source/Templates/gcc_ride7/startup_stm32f2xx.s.o
EXTI0_IRQHandler                                  CMakeFiles/bootloader.dir/__/__/__/__/__/thirdparty/STM32F2xx_StdPeriph_Lib_V1.1.0/Libraries/CMSIS/Device/ST/STM32F2xx/Source/Templates/gcc_ride7/startup_stm32f2xx.s.o
EXTI15_10_IRQHandler                              CMakeFiles/bootloader.dir/__/rotary_encoder_driver.cpp.o
                                                  CMakeFiles/bootloader.dir/__/__/__/__/__/thirdparty/STM32F2xx_StdPeriph_Lib_V1.1.0/Libraries/CMSIS/Device/ST/STM32F2xx/Source/Templates/gcc_ride7/startup_stm32f2xx.s.o
EXTI1_IRQHandler                                  CMakeFiles/bootloader.dir/__/__/__/__/__/thirdparty/STM32F2xx_StdPeriph_Lib_V1.1.0/Libraries/CMSIS/Device/ST/STM32F2xx/Source/Templates/gcc_ride7/startup_stm32f2xx.s.o
EXTI2_IRQHandler                                  CMakeFiles/bootloader.dir/__/__/__/__/__/thirdparty/STM32F2xx_StdPeriph_Lib_V1.1.0/Libraries/CMSIS/Device/ST/STM32F2xx/Source/Templates/gcc_ride7/startup_stm32f2xx.s.o
EXTI3_IRQHandler                                  CMakeFiles/bootloader.dir/__/__/__/__/__/thirdparty/STM32F2xx_StdPeriph_Lib_V1.1.0/Libraries/CMSIS/Device/ST/STM32F2xx/Source/Templates/gcc_ride7/startup_stm32f2xx.s.o
EXTI4_IRQHandler                                  CMakeFiles/bootloader.dir/__/__/__/__/__/thirdparty/STM32F2xx_StdPeriph_Lib_V1.1.0/Libraries/CMSIS/Device/ST/STM32F2xx/Source/Templates/gcc_ride7/startup_stm32f2xx.s.o
EXTI9_5_IRQHandler                                CMakeFiles/bootloader.dir/__/rotary_encoder_driver.cpp.o
                                                  CMakeFiles/bootloader.dir/__/__/__/__/__/thirdparty/STM32F2xx_StdPeriph_Lib_V1.1.0/Libraries/CMSIS/Device/ST/STM32F2xx/Source/Templates/gcc_ride7/startup_stm32f2xx.s.o
EXTI_ClearFlag                                    CMakeFiles/bootloader.dir/__/__/__/__/__/thirdparty/STM32F2xx_StdPeriph_Lib_V1.1.0/Libraries/STM32F2xx_StdPeriph_Driver/src/stm32f2xx_exti.c.o
EXTI_ClearITPendingBit                            CMakeFiles/bootloader.dir/__/__/__/__/__/thirdparty/STM32F2xx_StdPeriph_Lib_V1.1.0/Libraries/STM32F2xx_StdPeriph_Driver/src/stm32f2xx_exti.c.o
                                                  CMakeFiles/bootloader.dir/__/rotary_encoder_driver.cpp.o
EXTI_DeInit                                       CMakeFiles/bootloader.dir/__/__/__/__/__/thirdparty/STM32F2xx_StdPeriph_Lib_V1.1.0/Libraries/STM32F2xx_StdPeriph_Driver/src/stm32f2xx_exti.c.o
EXTI_GenerateSWInterrupt                          CMakeFiles/bootloader.dir/__/__/__/__/__/thirdparty/STM32F2xx_StdPeriph_Lib_V1.1.0/Libraries/STM32F2xx_StdPeriph_Driver/src/stm32f2xx_exti.c.o
EXTI_GetFlagStatus                                CMakeFiles/bootloader.dir/__/__/__/__/__/thirdparty/STM32F2xx_StdPeriph_Lib_V1.1.0/Libraries/STM32F2xx_StdPeriph_Driver/src/stm32f2xx_exti.c.o
EXTI_GetITStatus                                  CMakeFiles/bootloader.dir/__/__/__/__/__/thirdparty/STM32F2xx_StdPeriph_Lib_V1.1.0/Libraries/STM32F2xx_StdPeriph_Driver/src/stm32f2xx_exti.c.o
                                                  CMakeFiles/bootloader.dir/__/rotary_encoder_driver.cpp.o
EXTI_Init                                         CMakeFiles/bootloader.dir/__/__/__/__/__/thirdparty/STM32F2xx_StdPeriph_Lib_V1.1.0/Libraries/STM32F2xx_StdPeriph_Driver/src/stm32f2xx_exti.c.o
                                                  CMakeFiles/bootloader.dir/__/rotary_encoder_driver.cpp.o
EXTI_StructInit                                   CMakeFiles/bootloader.dir/__/__/__/__/__/thirdparty/STM32F2xx_StdPeriph_Lib_V1.1.0/Libraries/STM32F2xx_StdPeriph_Driver/src/stm32f2xx_exti.c.o
                                                  CMakeFiles/bootloader.dir/__/rotary_encoder_driver.cpp.o
FLASH_IRQHandler                                  CMakeFiles/bootloader.dir/__/__/__/__/__/thirdparty/STM32F2xx_StdPeriph_Lib_V1.1.0/Libraries/CMSIS/Device/ST/STM32F2xx/Source/Templates/gcc_ride7/startup_stm32f2xx.s.o
FSMC_IRQHandler                                   CMakeFiles/bootloader.dir/__/__/__/__/__/thirdparty/STM32F2xx_StdPeriph_Lib_V1.1.0/Libraries/CMSIS/Device/ST/STM32F2xx/Source/Templates/gcc_ride7/startup_stm32f2xx.s.o
GPIO_DeInit                                       CMakeFiles/bootloader.dir/__/__/__/__/__/thirdparty/STM32F2xx_StdPeriph_Lib_V1.1.0/Libraries/STM32F2xx_StdPeriph_Driver/src/stm32f2xx_gpio.c.o
GPIO_Init                                         CMakeFiles/bootloader.dir/__/__/__/__/__/thirdparty/STM32F2xx_StdPeriph_Lib_V1.1.0/Libraries/STM32F2xx_StdPeriph_Driver/src/stm32f2xx_gpio.c.o
                                                  CMakeFiles/bootloader.dir/__/__/__/__/taranis/i2c_driver.cpp.o
                                                  CMakeFiles/bootloader.dir/__/bluetooth_driver.cpp.o
                                                  CMakeFiles/bootloader.dir/__/usb_bsp.c.o
                                                  CMakeFiles/bootloader.dir/__/pwr_driver.cpp.o
                                                  CMakeFiles/bootloader.dir/__/__/__/__/taranis/board.cpp.o
                                                  CMakeFiles/bootloader.dir/__/__/__/__/taranis/diskio.cpp.o
                                                  CMakeFiles/bootloader.dir/__/__/__/__/taranis/keys_driver.cpp.o
                                                  CMakeFiles/bootloader.dir/__/__/__/__/taranis/backlight_driver.cpp.o
                                                  CMakeFiles/bootloader.dir/__/__/__/__/taranis/lcd_driver_spi.cpp.o
GPIO_PinAFConfig                                  CMakeFiles/bootloader.dir/__/__/__/__/__/thirdparty/STM32F2xx_StdPeriph_Lib_V1.1.0/Libraries/STM32F2xx_StdPeriph_Driver/src/stm32f2xx_gpio.c.o
                                                  CMakeFiles/bootloader.dir/__/__/__/__/taranis/i2c_driver.cpp.o
                                                  CMakeFiles/bootloader.dir/__/usb_bsp.c.o
                                                  CMakeFiles/bootloader.dir/__/__/__/__/taranis/diskio.cpp.o
                                                  CMakeFiles/bootloader.dir/__/__/__/__/taranis/backlight_driver.cpp.o
                                                  CMakeFiles/bootloader.dir/__/__/__/__/taranis/lcd_driver_spi.cpp.o
GPIO_PinLockConfig                                CMakeFiles/bootloader.dir/__/__/__/__/__/thirdparty/STM32F2xx_StdPeriph_Lib_V1.1.0/Libraries/STM32F2xx_StdPeriph_Driver/src/stm32f2xx_gpio.c.o
GPIO_ReadInputData                                CMakeFiles/bootloader.dir/__/__/__/__/__/thirdparty/STM32F2xx_StdPeriph_Lib_V1.1.0/Libraries/STM32F2xx_StdPeriph_Driver/src/stm32f2xx_gpio.c.o
GPIO_ReadInputDataBit                             CMakeFiles/bootloader.dir/__/__/__/__/__/thirdparty/STM32F2xx_StdPeriph_Lib_V1.1.0/Libraries/STM32F2xx_StdPeriph_Driver/src/stm32f2xx_gpio.c.o
                                                  CMakeFiles/bootloader.dir/__/usb_driver.cpp.o
                                                  CMakeFiles/bootloader.dir/__/pwr_driver.cpp.o
GPIO_ReadOutputData                               CMakeFiles/bootloader.dir/__/__/__/__/__/thirdparty/STM32F2xx_StdPeriph_Lib_V1.1.0/Libraries/STM32F2xx_StdPeriph_Driver/src/stm32f2xx_gpio.c.o
GPIO_ReadOutputDataBit                            CMakeFiles/bootloader.dir/__/__/__/__/__/thirdparty/STM32F2xx_StdPeriph_Lib_V1.1.0/Libraries/STM32F2xx_StdPeriph_Driver/src/stm32f2xx_gpio.c.o
GPIO_ResetBits                                    CMakeFiles/bootloader.dir/__/__/__/__/__/thirdparty/STM32F2xx_StdPeriph_Lib_V1.1.0/Libraries/STM32F2xx_StdPeriph_Driver/src/stm32f2xx_gpio.c.o
                                                  CMakeFiles/bootloader.dir/__/__/__/__/taranis/i2c_driver.cpp.o
                                                  CMakeFiles/bootloader.dir/__/bluetooth_driver.cpp.o
                                                  CMakeFiles/bootloader.dir/__/pwr_driver.cpp.o
                                                  CMakeFiles/bootloader.dir/__/__/__/__/taranis/board.cpp.o
                                                  CMakeFiles/bootloader.dir/__/__/__/__/taranis/diskio.cpp.o
GPIO_SetBits                                      CMakeFiles/bootloader.dir/__/__/__/__/__/thirdparty/STM32F2xx_StdPeriph_Lib_V1.1.0/Libraries/STM32F2xx_StdPeriph_Driver/src/stm32f2xx_gpio.c.o
                                                  CMakeFiles/bootloader.dir/__/bluetooth_driver.cpp.o
                                                  CMakeFiles/bootloader.dir/__/pwr_driver.cpp.o
                                                  CMakeFiles/bootloader.dir/__/__/__/__/taranis/board.cpp.o
                                                  CMakeFiles/bootloader.dir/__/__/__/__/taranis/diskio.cpp.o
GPIO_StructInit                                   CMakeFiles/bootloader.dir/__/__/__/__/__/thirdparty/STM32F2xx_StdPeriph_Lib_V1.1.0/Libraries/STM32F2xx_StdPeriph_Driver/src/stm32f2xx_gpio.c.o
GPIO_ToggleBits                                   CMakeFiles/bootloader.dir/__/__/__/__/__/thirdparty/STM32F2xx_StdPeriph_Lib_V1.1.0/Libraries/STM32F2xx_StdPeriph_Driver/src/stm32f2xx_gpio.c.o
GPIO_Write                                        CMakeFiles/bootloader.dir/__/__/__/__/__/thirdparty/STM32F2xx_StdPeriph_Lib_V1.1.0/Libraries/STM32F2xx_StdPeriph_Driver/src/stm32f2xx_gpio.c.o
GPIO_WriteBit                                     CMakeFiles/bootloader.dir/__/__/__/__/__/thirdparty/STM32F2xx_StdPeriph_Lib_V1.1.0/Libraries/STM32F2xx_StdPeriph_Driver/src/stm32f2xx_gpio.c.o
HASH_RNG_IRQHandler                               CMakeFiles/bootloader.dir/__/__/__/__/__/thirdparty/STM32F2xx_StdPeriph_Lib_V1.1.0/Libraries/CMSIS/Device/ST/STM32F2xx/Source/Templates/gcc_ride7/startup_stm32f2xx.s.o
HardFault_Handler                                 CMakeFiles/bootloader.dir/__/__/__/__/__/thirdparty/STM32F2xx_StdPeriph_Lib_V1.1.0/Libraries/CMSIS/Device/ST/STM32F2xx/Source/Templates/gcc_ride7/startup_stm32f2xx.s.o
I2C1_ER_IRQHandler                                CMakeFiles/bootloader.dir/__/__/__/__/__/thirdparty/STM32F2xx_StdPeriph_Lib_V1.1.0/Libraries/CMSIS/Device/ST/STM32F2xx/Source/Templates/gcc_ride7/startup_stm32f2xx.s.o
I2C1_EV_IRQHandler                                CMakeFiles/bootloader.dir/__/__/__/__/__/thirdparty/STM32F2xx_StdPeriph_Lib_V1.1.0/Libraries/CMSIS/Device/ST/STM32F2xx/Source/Templates/gcc_ride7/startup_stm32f2xx.s.o
I2C2_ER_IRQHandler                                CMakeFiles/bootloader.dir/__/__/__/__/__/thirdparty/STM32F2xx_StdPeriph_Lib_V1.1.0/Libraries/CMSIS/Device/ST/STM32F2xx/Source/Templates/gcc_ride7/startup_stm32f2xx.s.o
I2C2_EV_IRQHandler                                CMakeFiles/bootloader.dir/__/__/__/__/__/thirdparty/STM32F2xx_StdPeriph_Lib_V1.1.0/Libraries/CMSIS/Device/ST/STM32F2xx/Source/Templates/gcc_ride7/startup_stm32f2xx.s.o
I2C3_ER_IRQHandler                                CMakeFiles/bootloader.dir/__/__/__/__/__/thirdparty/STM32F2xx_StdPeriph_Lib_V1.1.0/Libraries/CMSIS/Device/ST/STM32F2xx/Source/Templates/gcc_ride7/startup_stm32f2xx.s.o
I2C3_EV_IRQHandler                                CMakeFiles/bootloader.dir/__/__/__/__/__/thirdparty/STM32F2xx_StdPeriph_Lib_V1.1.0/Libraries/CMSIS/Device/ST/STM32F2xx/Source/Templates/gcc_ride7/startup_stm32f2xx.s.o
I2C_ARPCmd                                        CMakeFiles/bootloader.dir/__/__/__/__/__/thirdparty/STM32F2xx_StdPeriph_Lib_V1.1.0/Libraries/STM32F2xx_StdPeriph_Driver/src/stm32f2xx_i2c.c.o
I2C_AcknowledgeConfig                             CMakeFiles/bootloader.dir/__/__/__/__/__/thirdparty/STM32F2xx_StdPeriph_Lib_V1.1.0/Libraries/STM32F2xx_StdPeriph_Driver/src/stm32f2xx_i2c.c.o
                                                  CMakeFiles/bootloader.dir/__/__/__/__/taranis/i2c_driver.cpp.o
I2C_CalculatePEC                                  CMakeFiles/bootloader.dir/__/__/__/__/__/thirdparty/STM32F2xx_StdPeriph_Lib_V1.1.0/Libraries/STM32F2xx_StdPeriph_Driver/src/stm32f2xx_i2c.c.o
I2C_CheckEvent                                    CMakeFiles/bootloader.dir/__/__/__/__/__/thirdparty/STM32F2xx_StdPeriph_Lib_V1.1.0/Libraries/STM32F2xx_StdPeriph_Driver/src/stm32f2xx_i2c.c.o
                                                  CMakeFiles/bootloader.dir/__/__/__/__/taranis/i2c_driver.cpp.o
I2C_ClearFlag                                     CMakeFiles/bootloader.dir/__/__/__/__/__/thirdparty/STM32F2xx_StdPeriph_Lib_V1.1.0/Libraries/STM32F2xx_StdPeriph_Driver/src/stm32f2xx_i2c.c.o
I2C_ClearITPendingBit                             CMakeFiles/bootloader.dir/__/__/__/__/__/thirdparty/STM32F2xx_StdPeriph_Lib_V1.1.0/Libraries/STM32F2xx_StdPeriph_Driver/src/stm32f2xx_i2c.c.o
I2C_Cmd                                           CMakeFiles/bootloader.dir/__/__/__/__/__/thirdparty/STM32F2xx_StdPeriph_Lib_V1.1.0/Libraries/STM32F2xx_StdPeriph_Driver/src/stm32f2xx_i2c.c.o
                                                  CMakeFiles/bootloader.dir/__/__/__/__/taranis/i2c_driver.cpp.o
I2C_DMACmd                                        CMakeFiles/bootloader.dir/__/__/__/__/__/thirdparty/STM32F2xx_StdPeriph_Lib_V1.1.0/Libraries/STM32F2xx_StdPeriph_Driver/src/stm32f2xx_i2c.c.o
I2C_DMALastTransferCmd                            CMakeFiles/bootloader.dir/__/__/__/__/__/thirdparty/STM32F2xx_StdPeriph_Lib_V1.1.0/Libraries/STM32F2xx_StdPeriph_Driver/src/stm32f2xx_i2c.c.o
I2C_DeInit                                        CMakeFiles/bootloader.dir/__/__/__/__/__/thirdparty/STM32F2xx_StdPeriph_Lib_V1.1.0/Libraries/STM32F2xx_StdPeriph_Driver/src/stm32f2xx_i2c.c.o
                                                  CMakeFiles/bootloader.dir/__/__/__/__/taranis/i2c_driver.cpp.o
I2C_DualAddressCmd                                CMakeFiles/bootloader.dir/__/__/__/__/__/thirdparty/STM32F2xx_StdPeriph_Lib_V1.1.0/Libraries/STM32F2xx_StdPeriph_Driver/src/stm32f2xx_i2c.c.o
I2C_EE_PageWrite(unsigned char*, unsigned short, unsigned char) CMakeFiles/bootloader.dir/__/__/__/__/taranis/i2c_driver.cpp.o
I2C_EE_ReadBlock(unsigned char*, unsigned short, unsigned short) CMakeFiles/bootloader.dir/__/__/__/__/taranis/i2c_driver.cpp.o
I2C_EE_WaitEepromStandbyState()                   CMakeFiles/bootloader.dir/__/__/__/__/taranis/i2c_driver.cpp.o
I2C_FastModeDutyCycleConfig                       CMakeFiles/bootloader.dir/__/__/__/__/__/thirdparty/STM32F2xx_StdPeriph_Lib_V1.1.0/Libraries/STM32F2xx_StdPeriph_Driver/src/stm32f2xx_i2c.c.o
I2C_GeneralCallCmd                                CMakeFiles/bootloader.dir/__/__/__/__/__/thirdparty/STM32F2xx_StdPeriph_Lib_V1.1.0/Libraries/STM32F2xx_StdPeriph_Driver/src/stm32f2xx_i2c.c.o
I2C_GenerateSTART                                 CMakeFiles/bootloader.dir/__/__/__/__/__/thirdparty/STM32F2xx_StdPeriph_Lib_V1.1.0/Libraries/STM32F2xx_StdPeriph_Driver/src/stm32f2xx_i2c.c.o
                                                  CMakeFiles/bootloader.dir/__/__/__/__/taranis/i2c_driver.cpp.o
I2C_GenerateSTOP                                  CMakeFiles/bootloader.dir/__/__/__/__/__/thirdparty/STM32F2xx_StdPeriph_Lib_V1.1.0/Libraries/STM32F2xx_StdPeriph_Driver/src/stm32f2xx_i2c.c.o
                                                  CMakeFiles/bootloader.dir/__/__/__/__/taranis/i2c_driver.cpp.o
I2C_GetFlagStatus                                 CMakeFiles/bootloader.dir/__/__/__/__/__/thirdparty/STM32F2xx_StdPeriph_Lib_V1.1.0/Libraries/STM32F2xx_StdPeriph_Driver/src/stm32f2xx_i2c.c.o
I2C_GetITStatus                                   CMakeFiles/bootloader.dir/__/__/__/__/__/thirdparty/STM32F2xx_StdPeriph_Lib_V1.1.0/Libraries/STM32F2xx_StdPeriph_Driver/src/stm32f2xx_i2c.c.o
I2C_GetLastEvent                                  CMakeFiles/bootloader.dir/__/__/__/__/__/thirdparty/STM32F2xx_StdPeriph_Lib_V1.1.0/Libraries/STM32F2xx_StdPeriph_Driver/src/stm32f2xx_i2c.c.o
I2C_GetPEC                                        CMakeFiles/bootloader.dir/__/__/__/__/__/thirdparty/STM32F2xx_StdPeriph_Lib_V1.1.0/Libraries/STM32F2xx_StdPeriph_Driver/src/stm32f2xx_i2c.c.o
I2C_ITConfig                                      CMakeFiles/bootloader.dir/__/__/__/__/__/thirdparty/STM32F2xx_StdPeriph_Lib_V1.1.0/Libraries/STM32F2xx_StdPeriph_Driver/src/stm32f2xx_i2c.c.o
I2C_Init                                          CMakeFiles/bootloader.dir/__/__/__/__/__/thirdparty/STM32F2xx_StdPeriph_Lib_V1.1.0/Libraries/STM32F2xx_StdPeriph_Driver/src/stm32f2xx_i2c.c.o
                                                  CMakeFiles/bootloader.dir/__/__/__/__/taranis/i2c_driver.cpp.o
I2C_NACKPositionConfig                            CMakeFiles/bootloader.dir/__/__/__/__/__/thirdparty/STM32F2xx_StdPeriph_Lib_V1.1.0/Libraries/STM32F2xx_StdPeriph_Driver/src/stm32f2xx_i2c.c.o
I2C_OwnAddress2Config                             CMakeFiles/bootloader.dir/__/__/__/__/__/thirdparty/STM32F2xx_StdPeriph_Lib_V1.1.0/Libraries/STM32F2xx_StdPeriph_Driver/src/stm32f2xx_i2c.c.o
I2C_PECPositionConfig                             CMakeFiles/bootloader.dir/__/__/__/__/__/thirdparty/STM32F2xx_StdPeriph_Lib_V1.1.0/Libraries/STM32F2xx_StdPeriph_Driver/src/stm32f2xx_i2c.c.o
I2C_ReadRegister                                  CMakeFiles/bootloader.dir/__/__/__/__/__/thirdparty/STM32F2xx_StdPeriph_Lib_V1.1.0/Libraries/STM32F2xx_StdPeriph_Driver/src/stm32f2xx_i2c.c.o
I2C_ReceiveData                                   CMakeFiles/bootloader.dir/__/__/__/__/__/thirdparty/STM32F2xx_StdPeriph_Lib_V1.1.0/Libraries/STM32F2xx_StdPeriph_Driver/src/stm32f2xx_i2c.c.o
                                                  CMakeFiles/bootloader.dir/__/__/__/__/taranis/i2c_driver.cpp.o
I2C_SMBusAlertConfig                              CMakeFiles/bootloader.dir/__/__/__/__/__/thirdparty/STM32F2xx_StdPeriph_Lib_V1.1.0/Libraries/STM32F2xx_StdPeriph_Driver/src/stm32f2xx_i2c.c.o
I2C_Send7bitAddress                               CMakeFiles/bootloader.dir/__/__/__/__/__/thirdparty/STM32F2xx_StdPeriph_Lib_V1.1.0/Libraries/STM32F2xx_StdPeriph_Driver/src/stm32f2xx_i2c.c.o
                                                  CMakeFiles/bootloader.dir/__/__/__/__/taranis/i2c_driver.cpp.o
I2C_SendData                                      CMakeFiles/bootloader.dir/__/__/__/__/__/thirdparty/STM32F2xx_StdPeriph_Lib_V1.1.0/Libraries/STM32F2xx_StdPeriph_Driver/src/stm32f2xx_i2c.c.o
                                                  CMakeFiles/bootloader.dir/__/__/__/__/taranis/i2c_driver.cpp.o
I2C_SoftwareResetCmd                              CMakeFiles/bootloader.dir/__/__/__/__/__/thirdparty/STM32F2xx_StdPeriph_Lib_V1.1.0/Libraries/STM32F2xx_StdPeriph_Driver/src/stm32f2xx_i2c.c.o
I2C_StretchClockCmd                               CMakeFiles/bootloader.dir/__/__/__/__/__/thirdparty/STM32F2xx_StdPeriph_Lib_V1.1.0/Libraries/STM32F2xx_StdPeriph_Driver/src/stm32f2xx_i2c.c.o
I2C_StructInit                                    CMakeFiles/bootloader.dir/__/__/__/__/__/thirdparty/STM32F2xx_StdPeriph_Lib_V1.1.0/Libraries/STM32F2xx_StdPeriph_Driver/src/stm32f2xx_i2c.c.o
I2C_TransmitPEC                                   CMakeFiles/bootloader.dir/__/__/__/__/__/thirdparty/STM32F2xx_StdPeriph_Lib_V1.1.0/Libraries/STM32F2xx_StdPeriph_Driver/src/stm32f2xx_i2c.c.o
I2C_WaitEvent(unsigned long)                      CMakeFiles/bootloader.dir/__/__/__/__/taranis/i2c_driver.cpp.o
I2C_WaitEventCleared(unsigned long)               CMakeFiles/bootloader.dir/__/__/__/__/taranis/i2c_driver.cpp.o
I2S_Cmd                                           CMakeFiles/bootloader.dir/__/__/__/__/__/thirdparty/STM32F2xx_StdPeriph_Lib_V1.1.0/Libraries/STM32F2xx_StdPeriph_Driver/src/stm32f2xx_spi.c.o
I2S_Init                                          CMakeFiles/bootloader.dir/__/__/__/__/__/thirdparty/STM32F2xx_StdPeriph_Lib_V1.1.0/Libraries/STM32F2xx_StdPeriph_Driver/src/stm32f2xx_spi.c.o
I2S_StructInit                                    CMakeFiles/bootloader.dir/__/__/__/__/__/thirdparty/STM32F2xx_StdPeriph_Lib_V1.1.0/Libraries/STM32F2xx_StdPeriph_Driver/src/stm32f2xx_spi.c.o
Key::input(bool)                                  CMakeFiles/bootloader.dir/__/__/__/__/__/keys.cpp.o
                                                  CMakeFiles/bootloader.dir/boot.cpp.o
                                                  CMakeFiles/bootloader.dir/__/__/__/__/taranis/keys_driver.cpp.o
Key::key() const                                  CMakeFiles/bootloader.dir/__/__/__/__/__/keys.cpp.o
Key::killEvents()                                 CMakeFiles/bootloader.dir/__/__/__/__/__/keys.cpp.o
Key::pauseEvents()                                CMakeFiles/bootloader.dir/__/__/__/__/__/keys.cpp.o
MSC_BOT_CplClrFeature                             CMakeFiles/bootloader.dir/__/__/__/__/__/thirdparty/STM32_USB-Host-Device_Lib_V2.2.0/Libraries/STM32_USB_Device_Library/Class/msc/src/usbd_msc_bot.c.o
                                                  CMakeFiles/bootloader.dir/__/__/__/__/__/thirdparty/STM32_USB-Host-Device_Lib_V2.2.0/Libraries/STM32_USB_Device_Library/Class/msc/src/usbd_msc_core.c.o
MSC_BOT_Data                                      CMakeFiles/bootloader.dir/__/__/__/__/__/thirdparty/STM32_USB-Host-Device_Lib_V2.2.0/Libraries/STM32_USB_Device_Library/Class/msc/src/usbd_msc_bot.c.o
                                                  CMakeFiles/bootloader.dir/__/__/__/__/__/thirdparty/STM32_USB-Host-Device_Lib_V2.2.0/Libraries/STM32_USB_Device_Library/Class/msc/src/usbd_msc_scsi.c.o
MSC_BOT_DataIn                                    CMakeFiles/bootloader.dir/__/__/__/__/__/thirdparty/STM32_USB-Host-Device_Lib_V2.2.0/Libraries/STM32_USB_Device_Library/Class/msc/src/usbd_msc_bot.c.o
                                                  CMakeFiles/bootloader.dir/__/__/__/__/__/thirdparty/STM32_USB-Host-Device_Lib_V2.2.0/Libraries/STM32_USB_Device_Library/Class/msc/src/usbd_msc_core.c.o
MSC_BOT_DataLen                                   CMakeFiles/bootloader.dir/__/__/__/__/__/thirdparty/STM32_USB-Host-Device_Lib_V2.2.0/Libraries/STM32_USB_Device_Library/Class/msc/src/usbd_msc_bot.c.o
                                                  CMakeFiles/bootloader.dir/__/__/__/__/__/thirdparty/STM32_USB-Host-Device_Lib_V2.2.0/Libraries/STM32_USB_Device_Library/Class/msc/src/usbd_msc_scsi.c.o
MSC_BOT_DataOut                                   CMakeFiles/bootloader.dir/__/__/__/__/__/thirdparty/STM32_USB-Host-Device_Lib_V2.2.0/Libraries/STM32_USB_Device_Library/Class/msc/src/usbd_msc_bot.c.o
                                                  CMakeFiles/bootloader.dir/__/__/__/__/__/thirdparty/STM32_USB-Host-Device_Lib_V2.2.0/Libraries/STM32_USB_Device_Library/Class/msc/src/usbd_msc_core.c.o
MSC_BOT_DeInit                                    CMakeFiles/bootloader.dir/__/__/__/__/__/thirdparty/STM32_USB-Host-Device_Lib_V2.2.0/Libraries/STM32_USB_Device_Library/Class/msc/src/usbd_msc_bot.c.o
                                                  CMakeFiles/bootloader.dir/__/__/__/__/__/thirdparty/STM32_USB-Host-Device_Lib_V2.2.0/Libraries/STM32_USB_Device_Library/Class/msc/src/usbd_msc_core.c.o
MSC_BOT_Init                                      CMakeFiles/bootloader.dir/__/__/__/__/__/thirdparty/STM32_USB-Host-Device_Lib_V2.2.0/Libraries/STM32_USB_Device_Library/Class/msc/src/usbd_msc_bot.c.o
                                                  CMakeFiles/bootloader.dir/__/__/__/__/__/thirdparty/STM32_USB-Host-Device_Lib_V2.2.0/Libraries/STM32_USB_Device_Library/Class/msc/src/usbd_msc_core.c.o
MSC_BOT_Reset                                     CMakeFiles/bootloader.dir/__/__/__/__/__/thirdparty/STM32_USB-Host-Device_Lib_V2.2.0/Libraries/STM32_USB_Device_Library/Class/msc/src/usbd_msc_bot.c.o
                                                  CMakeFiles/bootloader.dir/__/__/__/__/__/thirdparty/STM32_USB-Host-Device_Lib_V2.2.0/Libraries/STM32_USB_Device_Library/Class/msc/src/usbd_msc_core.c.o
MSC_BOT_SendCSW                                   CMakeFiles/bootloader.dir/__/__/__/__/__/thirdparty/STM32_USB-Host-Device_Lib_V2.2.0/Libraries/STM32_USB_Device_Library/Class/msc/src/usbd_msc_bot.c.o
                                                  CMakeFiles/bootloader.dir/__/__/__/__/__/thirdparty/STM32_USB-Host-Device_Lib_V2.2.0/Libraries/STM32_USB_Device_Library/Class/msc/src/usbd_msc_scsi.c.o
MSC_BOT_State                                     CMakeFiles/bootloader.dir/__/__/__/__/__/thirdparty/STM32_USB-Host-Device_Lib_V2.2.0/Libraries/STM32_USB_Device_Library/Class/msc/src/usbd_msc_bot.c.o
                                                  CMakeFiles/bootloader.dir/__/__/__/__/__/thirdparty/STM32_USB-Host-Device_Lib_V2.2.0/Libraries/STM32_USB_Device_Library/Class/msc/src/usbd_msc_scsi.c.o
MSC_BOT_Status                                    CMakeFiles/bootloader.dir/__/__/__/__/__/thirdparty/STM32_USB-Host-Device_Lib_V2.2.0/Libraries/STM32_USB_Device_Library/Class/msc/src/usbd_msc_bot.c.o
MSC_BOT_cbw                                       CMakeFiles/bootloader.dir/__/__/__/__/__/thirdparty/STM32_USB-Host-Device_Lib_V2.2.0/Libraries/STM32_USB_Device_Library/Class/msc/src/usbd_msc_bot.c.o
                                                  CMakeFiles/bootloader.dir/__/__/__/__/__/thirdparty/STM32_USB-Host-Device_Lib_V2.2.0/Libraries/STM32_USB_Device_Library/Class/msc/src/usbd_msc_scsi.c.o
MSC_BOT_csw                                       CMakeFiles/bootloader.dir/__/__/__/__/__/thirdparty/STM32_USB-Host-Device_Lib_V2.2.0/Libraries/STM32_USB_Device_Library/Class/msc/src/usbd_msc_bot.c.o
                                                  CMakeFiles/bootloader.dir/__/__/__/__/__/thirdparty/STM32_USB-Host-Device_Lib_V2.2.0/Libraries/STM32_USB_Device_Library/Class/msc/src/usbd_msc_scsi.c.o
MSC_Mode_Sense10_data                             CMakeFiles/bootloader.dir/__/__/__/__/__/thirdparty/STM32_USB-Host-Device_Lib_V2.2.0/Libraries/STM32_USB_Device_Library/Class/msc/src/usbd_msc_data.c.o
                                                  CMakeFiles/bootloader.dir/__/__/__/__/__/thirdparty/STM32_USB-Host-Device_Lib_V2.2.0/Libraries/STM32_USB_Device_Library/Class/msc/src/usbd_msc_scsi.c.o
MSC_Mode_Sense6_data                              CMakeFiles/bootloader.dir/__/__/__/__/__/thirdparty/STM32_USB-Host-Device_Lib_V2.2.0/Libraries/STM32_USB_Device_Library/Class/msc/src/usbd_msc_data.c.o
                                                  CMakeFiles/bootloader.dir/__/__/__/__/__/thirdparty/STM32_USB-Host-Device_Lib_V2.2.0/Libraries/STM32_USB_Device_Library/Class/msc/src/usbd_msc_scsi.c.o
MSC_Page00_Inquiry_Data                           CMakeFiles/bootloader.dir/__/__/__/__/__/thirdparty/STM32_USB-Host-Device_Lib_V2.2.0/Libraries/STM32_USB_Device_Library/Class/msc/src/usbd_msc_data.c.o
                                                  CMakeFiles/bootloader.dir/__/__/__/__/__/thirdparty/STM32_USB-Host-Device_Lib_V2.2.0/Libraries/STM32_USB_Device_Library/Class/msc/src/usbd_msc_scsi.c.o
MemManage_Handler                                 CMakeFiles/bootloader.dir/__/__/__/__/__/thirdparty/STM32F2xx_StdPeriph_Lib_V1.1.0/Libraries/CMSIS/Device/ST/STM32F2xx/Source/Templates/gcc_ride7/startup_stm32f2xx.s.o
NMI_Handler                                       CMakeFiles/bootloader.dir/__/__/__/__/__/thirdparty/STM32F2xx_StdPeriph_Lib_V1.1.0/Libraries/CMSIS/Device/ST/STM32F2xx/Source/Templates/gcc_ride7/startup_stm32f2xx.s.o
NVIC_Init                                         CMakeFiles/bootloader.dir/__/__/__/__/__/thirdparty/STM32F2xx_StdPeriph_Lib_V1.1.0/Libraries/STM32F2xx_StdPeriph_Driver/src/misc.c.o
                                                  CMakeFiles/bootloader.dir/__/rotary_encoder_driver.cpp.o
                                                  CMakeFiles/bootloader.dir/__/usbd_storage_msd.cpp.o
NVIC_PriorityGroupConfig                          CMakeFiles/bootloader.dir/__/__/__/__/__/thirdparty/STM32F2xx_StdPeriph_Lib_V1.1.0/Libraries/STM32F2xx_StdPeriph_Driver/src/misc.c.o
NVIC_SetVectorTable                               CMakeFiles/bootloader.dir/__/__/__/__/__/thirdparty/STM32F2xx_StdPeriph_Lib_V1.1.0/Libraries/STM32F2xx_StdPeriph_Driver/src/misc.c.o
NVIC_SystemLPConfig                               CMakeFiles/bootloader.dir/__/__/__/__/__/thirdparty/STM32F2xx_StdPeriph_Lib_V1.1.0/Libraries/STM32F2xx_StdPeriph_Driver/src/misc.c.o
OTG_FS_IRQHandler                                 CMakeFiles/bootloader.dir/__/usb_driver.cpp.o
                                                  CMakeFiles/bootloader.dir/__/__/__/__/__/thirdparty/STM32F2xx_StdPeriph_Lib_V1.1.0/Libraries/CMSIS/Device/ST/STM32F2xx/Source/Templates/gcc_ride7/startup_stm32f2xx.s.o
OTG_FS_WKUP_IRQHandler                            CMakeFiles/bootloader.dir/__/__/__/__/__/thirdparty/STM32F2xx_StdPeriph_Lib_V1.1.0/Libraries/CMSIS/Device/ST/STM32F2xx/Source/Templates/gcc_ride7/startup_stm32f2xx.s.o
OTG_HS_EP1_IN_IRQHandler                          CMakeFiles/bootloader.dir/__/__/__/__/__/thirdparty/STM32F2xx_StdPeriph_Lib_V1.1.0/Libraries/CMSIS/Device/ST/STM32F2xx/Source/Templates/gcc_ride7/startup_stm32f2xx.s.o
OTG_HS_EP1_OUT_IRQHandler                         CMakeFiles/bootloader.dir/__/__/__/__/__/thirdparty/STM32F2xx_StdPeriph_Lib_V1.1.0/Libraries/CMSIS/Device/ST/STM32F2xx/Source/Templates/gcc_ride7/startup_stm32f2xx.s.o
OTG_HS_IRQHandler                                 CMakeFiles/bootloader.dir/__/__/__/__/__/thirdparty/STM32F2xx_StdPeriph_Lib_V1.1.0/Libraries/CMSIS/Device/ST/STM32F2xx/Source/Templates/gcc_ride7/startup_stm32f2xx.s.o
OTG_HS_WKUP_IRQHandler                            CMakeFiles/bootloader.dir/__/__/__/__/__/thirdparty/STM32F2xx_StdPeriph_Lib_V1.1.0/Libraries/CMSIS/Device/ST/STM32F2xx/Source/Templates/gcc_ride7/startup_stm32f2xx.s.o
PVD_IRQHandler                                    CMakeFiles/bootloader.dir/__/__/__/__/__/thirdparty/STM32F2xx_StdPeriph_Lib_V1.1.0/Libraries/CMSIS/Device/ST/STM32F2xx/Source/Templates/gcc_ride7/startup_stm32f2xx.s.o
PendSV_Handler                                    CMakeFiles/bootloader.dir/__/__/__/__/__/thirdparty/STM32F2xx_StdPeriph_Lib_V1.1.0/Libraries/CMSIS/Device/ST/STM32F2xx/Source/Templates/gcc_ride7/startup_stm32f2xx.s.o
RCC_AHB1PeriphClockCmd                            CMakeFiles/bootloader.dir/__/__/__/__/__/thirdparty/STM32F2xx_StdPeriph_Lib_V1.1.0/Libraries/STM32F2xx_StdPeriph_Driver/src/stm32f2xx_rcc.c.o
                                                  CMakeFiles/bootloader.dir/boot.cpp.o
                                                  CMakeFiles/bootloader.dir/__/usb_bsp.c.o
                                                  CMakeFiles/bootloader.dir/__/__/__/__/taranis/board.cpp.o
RCC_AHB1PeriphClockLPModeCmd                      CMakeFiles/bootloader.dir/__/__/__/__/__/thirdparty/STM32F2xx_StdPeriph_Lib_V1.1.0/Libraries/STM32F2xx_StdPeriph_Driver/src/stm32f2xx_rcc.c.o
RCC_AHB1PeriphResetCmd                            CMakeFiles/bootloader.dir/__/__/__/__/__/thirdparty/STM32F2xx_StdPeriph_Lib_V1.1.0/Libraries/STM32F2xx_StdPeriph_Driver/src/stm32f2xx_rcc.c.o
                                                  CMakeFiles/bootloader.dir/__/__/__/__/__/thirdparty/STM32F2xx_StdPeriph_Lib_V1.1.0/Libraries/STM32F2xx_StdPeriph_Driver/src/stm32f2xx_gpio.c.o
RCC_AHB2PeriphClockCmd                            CMakeFiles/bootloader.dir/__/__/__/__/__/thirdparty/STM32F2xx_StdPeriph_Lib_V1.1.0/Libraries/STM32F2xx_StdPeriph_Driver/src/stm32f2xx_rcc.c.o
                                                  CMakeFiles/bootloader.dir/__/usb_bsp.c.o
RCC_AHB2PeriphClockLPModeCmd                      CMakeFiles/bootloader.dir/__/__/__/__/__/thirdparty/STM32F2xx_StdPeriph_Lib_V1.1.0/Libraries/STM32F2xx_StdPeriph_Driver/src/stm32f2xx_rcc.c.o
RCC_AHB2PeriphResetCmd                            CMakeFiles/bootloader.dir/__/__/__/__/__/thirdparty/STM32F2xx_StdPeriph_Lib_V1.1.0/Libraries/STM32F2xx_StdPeriph_Driver/src/stm32f2xx_rcc.c.o
RCC_AHB3PeriphClockCmd                            CMakeFiles/bootloader.dir/__/__/__/__/__/thirdparty/STM32F2xx_StdPeriph_Lib_V1.1.0/Libraries/STM32F2xx_StdPeriph_Driver/src/stm32f2xx_rcc.c.o
RCC_AHB3PeriphClockLPModeCmd                      CMakeFiles/bootloader.dir/__/__/__/__/__/thirdparty/STM32F2xx_StdPeriph_Lib_V1.1.0/Libraries/STM32F2xx_StdPeriph_Driver/src/stm32f2xx_rcc.c.o
RCC_AHB3PeriphResetCmd                            CMakeFiles/bootloader.dir/__/__/__/__/__/thirdparty/STM32F2xx_StdPeriph_Lib_V1.1.0/Libraries/STM32F2xx_StdPeriph_Driver/src/stm32f2xx_rcc.c.o
RCC_APB1PeriphClockCmd                            CMakeFiles/bootloader.dir/__/__/__/__/__/thirdparty/STM32F2xx_StdPeriph_Lib_V1.1.0/Libraries/STM32F2xx_StdPeriph_Driver/src/stm32f2xx_rcc.c.o
                                                  CMakeFiles/bootloader.dir/boot.cpp.o
                                                  CMakeFiles/bootloader.dir/__/__/__/__/taranis/board.cpp.o
RCC_APB1PeriphClockLPModeCmd                      CMakeFiles/bootloader.dir/__/__/__/__/__/thirdparty/STM32F2xx_StdPeriph_Lib_V1.1.0/Libraries/STM32F2xx_StdPeriph_Driver/src/stm32f2xx_rcc.c.o
RCC_APB1PeriphResetCmd                            CMakeFiles/bootloader.dir/__/__/__/__/__/thirdparty/STM32F2xx_StdPeriph_Lib_V1.1.0/Libraries/STM32F2xx_StdPeriph_Driver/src/stm32f2xx_rcc.c.o
                                                  CMakeFiles/bootloader.dir/__/__/__/__/__/thirdparty/STM32F2xx_StdPeriph_Lib_V1.1.0/Libraries/STM32F2xx_StdPeriph_Driver/src/stm32f2xx_i2c.c.o
                                                  CMakeFiles/bootloader.dir/__/__/__/__/__/thirdparty/STM32F2xx_StdPeriph_Lib_V1.1.0/Libraries/STM32F2xx_StdPeriph_Driver/src/stm32f2xx_spi.c.o
RCC_APB2PeriphClockCmd                            CMakeFiles/bootloader.dir/__/__/__/__/__/thirdparty/STM32F2xx_StdPeriph_Lib_V1.1.0/Libraries/STM32F2xx_StdPeriph_Driver/src/stm32f2xx_rcc.c.o
                                                  CMakeFiles/bootloader.dir/boot.cpp.o
                                                  CMakeFiles/bootloader.dir/__/usb_bsp.c.o
                                                  CMakeFiles/bootloader.dir/__/__/__/__/taranis/board.cpp.o
RCC_APB2PeriphClockLPModeCmd                      CMakeFiles/bootloader.dir/__/__/__/__/__/thirdparty/STM32F2xx_StdPeriph_Lib_V1.1.0/Libraries/STM32F2xx_StdPeriph_Driver/src/stm32f2xx_rcc.c.o
RCC_APB2PeriphResetCmd                            CMakeFiles/bootloader.dir/__/__/__/__/__/thirdparty/STM32F2xx_StdPeriph_Lib_V1.1.0/Libraries/STM32F2xx_StdPeriph_Driver/src/stm32f2xx_rcc.c.o
                                                  CMakeFiles/bootloader.dir/__/__/__/__/__/thirdparty/STM32F2xx_StdPeriph_Lib_V1.1.0/Libraries/STM32F2xx_StdPeriph_Driver/src/stm32f2xx_spi.c.o
                                                  CMakeFiles/bootloader.dir/__/__/__/__/__/thirdparty/STM32F2xx_StdPeriph_Lib_V1.1.0/Libraries/STM32F2xx_StdPeriph_Driver/src/stm32f2xx_syscfg.c.o
RCC_AdjustHSICalibrationValue                     CMakeFiles/bootloader.dir/__/__/__/__/__/thirdparty/STM32F2xx_StdPeriph_Lib_V1.1.0/Libraries/STM32F2xx_StdPeriph_Driver/src/stm32f2xx_rcc.c.o
RCC_BackupResetCmd                                CMakeFiles/bootloader.dir/__/__/__/__/__/thirdparty/STM32F2xx_StdPeriph_Lib_V1.1.0/Libraries/STM32F2xx_StdPeriph_Driver/src/stm32f2xx_rcc.c.o
RCC_ClearFlag                                     CMakeFiles/bootloader.dir/__/__/__/__/__/thirdparty/STM32F2xx_StdPeriph_Lib_V1.1.0/Libraries/STM32F2xx_StdPeriph_Driver/src/stm32f2xx_rcc.c.o
RCC_ClearITPendingBit                             CMakeFiles/bootloader.dir/__/__/__/__/__/thirdparty/STM32F2xx_StdPeriph_Lib_V1.1.0/Libraries/STM32F2xx_StdPeriph_Driver/src/stm32f2xx_rcc.c.o
RCC_ClockSecuritySystemCmd                        CMakeFiles/bootloader.dir/__/__/__/__/__/thirdparty/STM32F2xx_StdPeriph_Lib_V1.1.0/Libraries/STM32F2xx_StdPeriph_Driver/src/stm32f2xx_rcc.c.o
RCC_DeInit                                        CMakeFiles/bootloader.dir/__/__/__/__/__/thirdparty/STM32F2xx_StdPeriph_Lib_V1.1.0/Libraries/STM32F2xx_StdPeriph_Driver/src/stm32f2xx_rcc.c.o
RCC_GetClocksFreq                                 CMakeFiles/bootloader.dir/__/__/__/__/__/thirdparty/STM32F2xx_StdPeriph_Lib_V1.1.0/Libraries/STM32F2xx_StdPeriph_Driver/src/stm32f2xx_rcc.c.o
                                                  CMakeFiles/bootloader.dir/__/__/__/__/__/thirdparty/STM32_USB-Host-Device_Lib_V2.2.0/Libraries/STM32_USB_OTG_Driver/src/usb_dcd_int.c.o
                                                  CMakeFiles/bootloader.dir/__/__/__/__/__/thirdparty/STM32F2xx_StdPeriph_Lib_V1.1.0/Libraries/STM32F2xx_StdPeriph_Driver/src/stm32f2xx_i2c.c.o
RCC_GetFlagStatus                                 CMakeFiles/bootloader.dir/__/__/__/__/__/thirdparty/STM32F2xx_StdPeriph_Lib_V1.1.0/Libraries/STM32F2xx_StdPeriph_Driver/src/stm32f2xx_rcc.c.o
RCC_GetITStatus                                   CMakeFiles/bootloader.dir/__/__/__/__/__/thirdparty/STM32F2xx_StdPeriph_Lib_V1.1.0/Libraries/STM32F2xx_StdPeriph_Driver/src/stm32f2xx_rcc.c.o
RCC_GetSYSCLKSource                               CMakeFiles/bootloader.dir/__/__/__/__/__/thirdparty/STM32F2xx_StdPeriph_Lib_V1.1.0/Libraries/STM32F2xx_StdPeriph_Driver/src/stm32f2xx_rcc.c.o
RCC_HCLKConfig                                    CMakeFiles/bootloader.dir/__/__/__/__/__/thirdparty/STM32F2xx_StdPeriph_Lib_V1.1.0/Libraries/STM32F2xx_StdPeriph_Driver/src/stm32f2xx_rcc.c.o
RCC_HSEConfig                                     CMakeFiles/bootloader.dir/__/__/__/__/__/thirdparty/STM32F2xx_StdPeriph_Lib_V1.1.0/Libraries/STM32F2xx_StdPeriph_Driver/src/stm32f2xx_rcc.c.o
RCC_HSICmd                                        CMakeFiles/bootloader.dir/__/__/__/__/__/thirdparty/STM32F2xx_StdPeriph_Lib_V1.1.0/Libraries/STM32F2xx_StdPeriph_Driver/src/stm32f2xx_rcc.c.o
RCC_I2SCLKConfig                                  CMakeFiles/bootloader.dir/__/__/__/__/__/thirdparty/STM32F2xx_StdPeriph_Lib_V1.1.0/Libraries/STM32F2xx_StdPeriph_Driver/src/stm32f2xx_rcc.c.o
RCC_IRQHandler                                    CMakeFiles/bootloader.dir/__/__/__/__/__/thirdparty/STM32F2xx_StdPeriph_Lib_V1.1.0/Libraries/CMSIS/Device/ST/STM32F2xx/Source/Templates/gcc_ride7/startup_stm32f2xx.s.o
RCC_ITConfig                                      CMakeFiles/bootloader.dir/__/__/__/__/__/thirdparty/STM32F2xx_StdPeriph_Lib_V1.1.0/Libraries/STM32F2xx_StdPeriph_Driver/src/stm32f2xx_rcc.c.o
RCC_LSEConfig                                     CMakeFiles/bootloader.dir/__/__/__/__/__/thirdparty/STM32F2xx_StdPeriph_Lib_V1.1.0/Libraries/STM32F2xx_StdPeriph_Driver/src/stm32f2xx_rcc.c.o
RCC_LSICmd                                        CMakeFiles/bootloader.dir/__/__/__/__/__/thirdparty/STM32F2xx_StdPeriph_Lib_V1.1.0/Libraries/STM32F2xx_StdPeriph_Driver/src/stm32f2xx_rcc.c.o
RCC_MCO1Config                                    CMakeFiles/bootloader.dir/__/__/__/__/__/thirdparty/STM32F2xx_StdPeriph_Lib_V1.1.0/Libraries/STM32F2xx_StdPeriph_Driver/src/stm32f2xx_rcc.c.o
RCC_MCO2Config                                    CMakeFiles/bootloader.dir/__/__/__/__/__/thirdparty/STM32F2xx_StdPeriph_Lib_V1.1.0/Libraries/STM32F2xx_StdPeriph_Driver/src/stm32f2xx_rcc.c.o
RCC_PCLK1Config                                   CMakeFiles/bootloader.dir/__/__/__/__/__/thirdparty/STM32F2xx_StdPeriph_Lib_V1.1.0/Libraries/STM32F2xx_StdPeriph_Driver/src/stm32f2xx_rcc.c.o
RCC_PCLK2Config                                   CMakeFiles/bootloader.dir/__/__/__/__/__/thirdparty/STM32F2xx_StdPeriph_Lib_V1.1.0/Libraries/STM32F2xx_StdPeriph_Driver/src/stm32f2xx_rcc.c.o
RCC_PLLCmd                                        CMakeFiles/bootloader.dir/__/__/__/__/__/thirdparty/STM32F2xx_StdPeriph_Lib_V1.1.0/Libraries/STM32F2xx_StdPeriph_Driver/src/stm32f2xx_rcc.c.o
RCC_PLLConfig                                     CMakeFiles/bootloader.dir/__/__/__/__/__/thirdparty/STM32F2xx_StdPeriph_Lib_V1.1.0/Libraries/STM32F2xx_StdPeriph_Driver/src/stm32f2xx_rcc.c.o
RCC_PLLI2SCmd                                     CMakeFiles/bootloader.dir/__/__/__/__/__/thirdparty/STM32F2xx_StdPeriph_Lib_V1.1.0/Libraries/STM32F2xx_StdPeriph_Driver/src/stm32f2xx_rcc.c.o
RCC_PLLI2SConfig                                  CMakeFiles/bootloader.dir/__/__/__/__/__/thirdparty/STM32F2xx_StdPeriph_Lib_V1.1.0/Libraries/STM32F2xx_StdPeriph_Driver/src/stm32f2xx_rcc.c.o
RCC_RTCCLKCmd                                     CMakeFiles/bootloader.dir/__/__/__/__/__/thirdparty/STM32F2xx_StdPeriph_Lib_V1.1.0/Libraries/STM32F2xx_StdPeriph_Driver/src/stm32f2xx_rcc.c.o
RCC_RTCCLKConfig                                  CMakeFiles/bootloader.dir/__/__/__/__/__/thirdparty/STM32F2xx_StdPeriph_Lib_V1.1.0/Libraries/STM32F2xx_StdPeriph_Driver/src/stm32f2xx_rcc.c.o
RCC_SYSCLKConfig                                  CMakeFiles/bootloader.dir/__/__/__/__/__/thirdparty/STM32F2xx_StdPeriph_Lib_V1.1.0/Libraries/STM32F2xx_StdPeriph_Driver/src/stm32f2xx_rcc.c.o
RCC_WaitForHSEStartUp                             CMakeFiles/bootloader.dir/__/__/__/__/__/thirdparty/STM32F2xx_StdPeriph_Lib_V1.1.0/Libraries/STM32F2xx_StdPeriph_Driver/src/stm32f2xx_rcc.c.o
RTC_Alarm_IRQHandler                              CMakeFiles/bootloader.dir/__/__/__/__/__/thirdparty/STM32F2xx_StdPeriph_Lib_V1.1.0/Libraries/CMSIS/Device/ST/STM32F2xx/Source/Templates/gcc_ride7/startup_stm32f2xx.s.o
RTC_WKUP_IRQHandler                               CMakeFiles/bootloader.dir/__/__/__/__/__/thirdparty/STM32F2xx_StdPeriph_Lib_V1.1.0/Libraries/CMSIS/Device/ST/STM32F2xx/Source/Templates/gcc_ride7/startup_stm32f2xx.s.o
Reset_Handler                                     CMakeFiles/bootloader.dir/__/__/__/__/__/thirdparty/STM32F2xx_StdPeriph_Lib_V1.1.0/Libraries/CMSIS/Device/ST/STM32F2xx/Source/Templates/gcc_ride7/startup_stm32f2xx.s.o
SCSI_ProcessCmd                                   CMakeFiles/bootloader.dir/__/__/__/__/__/thirdparty/STM32_USB-Host-Device_Lib_V2.2.0/Libraries/STM32_USB_Device_Library/Class/msc/src/usbd_msc_scsi.c.o
                                                  CMakeFiles/bootloader.dir/__/__/__/__/__/thirdparty/STM32_USB-Host-Device_Lib_V2.2.0/Libraries/STM32_USB_Device_Library/Class/msc/src/usbd_msc_bot.c.o
SCSI_Sense                                        CMakeFiles/bootloader.dir/__/__/__/__/__/thirdparty/STM32_USB-Host-Device_Lib_V2.2.0/Libraries/STM32_USB_Device_Library/Class/msc/src/usbd_msc_scsi.c.o
SCSI_SenseCode                                    CMakeFiles/bootloader.dir/__/__/__/__/__/thirdparty/STM32_USB-Host-Device_Lib_V2.2.0/Libraries/STM32_USB_Device_Library/Class/msc/src/usbd_msc_scsi.c.o
                                                  CMakeFiles/bootloader.dir/__/__/__/__/__/thirdparty/STM32_USB-Host-Device_Lib_V2.2.0/Libraries/STM32_USB_Device_Library/Class/msc/src/usbd_msc_bot.c.o
SCSI_Sense_Head                                   CMakeFiles/bootloader.dir/__/__/__/__/__/thirdparty/STM32_USB-Host-Device_Lib_V2.2.0/Libraries/STM32_USB_Device_Library/Class/msc/src/usbd_msc_scsi.c.o
SCSI_Sense_Tail                                   CMakeFiles/bootloader.dir/__/__/__/__/__/thirdparty/STM32_USB-Host-Device_Lib_V2.2.0/Libraries/STM32_USB_Device_Library/Class/msc/src/usbd_msc_scsi.c.o
SCSI_blk_addr                                     CMakeFiles/bootloader.dir/__/__/__/__/__/thirdparty/STM32_USB-Host-Device_Lib_V2.2.0/Libraries/STM32_USB_Device_Library/Class/msc/src/usbd_msc_scsi.c.o
SCSI_blk_len                                      CMakeFiles/bootloader.dir/__/__/__/__/__/thirdparty/STM32_USB-Host-Device_Lib_V2.2.0/Libraries/STM32_USB_Device_Library/Class/msc/src/usbd_msc_scsi.c.o
SCSI_blk_nbr                                      CMakeFiles/bootloader.dir/__/__/__/__/__/thirdparty/STM32_USB-Host-Device_Lib_V2.2.0/Libraries/STM32_USB_Device_Library/Class/msc/src/usbd_msc_scsi.c.o
SCSI_blk_size                                     CMakeFiles/bootloader.dir/__/__/__/__/__/thirdparty/STM32_USB-Host-Device_Lib_V2.2.0/Libraries/STM32_USB_Device_Library/Class/msc/src/usbd_msc_scsi.c.o
SDIO_IRQHandler                                   CMakeFiles/bootloader.dir/__/__/__/__/__/thirdparty/STM32F2xx_StdPeriph_Lib_V1.1.0/Libraries/CMSIS/Device/ST/STM32F2xx/Source/Templates/gcc_ride7/startup_stm32f2xx.s.o
SD_ReadSectors(unsigned char*, unsigned long, unsigned long) CMakeFiles/bootloader.dir/__/__/__/__/taranis/diskio.cpp.o
SD_WriteSectors(unsigned char const*, unsigned long, unsigned long) CMakeFiles/bootloader.dir/__/__/__/__/taranis/diskio.cpp.o
SET_TEST_MODE                                     CMakeFiles/bootloader.dir/__/__/__/__/__/thirdparty/STM32_USB-Host-Device_Lib_V2.2.0/Libraries/STM32_USB_Device_Library/Core/src/usbd_core.c.o
                                                  CMakeFiles/bootloader.dir/__/__/__/__/__/thirdparty/STM32_USB-Host-Device_Lib_V2.2.0/Libraries/STM32_USB_Device_Library/Core/src/usbd_req.c.o
SPI1_IRQHandler                                   CMakeFiles/bootloader.dir/__/__/__/__/__/thirdparty/STM32F2xx_StdPeriph_Lib_V1.1.0/Libraries/CMSIS/Device/ST/STM32F2xx/Source/Templates/gcc_ride7/startup_stm32f2xx.s.o
SPI2_IRQHandler                                   CMakeFiles/bootloader.dir/__/__/__/__/__/thirdparty/STM32F2xx_StdPeriph_Lib_V1.1.0/Libraries/CMSIS/Device/ST/STM32F2xx/Source/Templates/gcc_ride7/startup_stm32f2xx.s.o
SPI3_IRQHandler                                   CMakeFiles/bootloader.dir/__/__/__/__/__/thirdparty/STM32F2xx_StdPeriph_Lib_V1.1.0/Libraries/CMSIS/Device/ST/STM32F2xx/Source/Templates/gcc_ride7/startup_stm32f2xx.s.o
SPI_BiDirectionalLineConfig                       CMakeFiles/bootloader.dir/__/__/__/__/__/thirdparty/STM32F2xx_StdPeriph_Lib_V1.1.0/Libraries/STM32F2xx_StdPeriph_Driver/src/stm32f2xx_spi.c.o
SPI_CalculateCRC                                  CMakeFiles/bootloader.dir/__/__/__/__/__/thirdparty/STM32F2xx_StdPeriph_Lib_V1.1.0/Libraries/STM32F2xx_StdPeriph_Driver/src/stm32f2xx_spi.c.o
                                                  CMakeFiles/bootloader.dir/__/__/__/__/taranis/diskio.cpp.o
SPI_Cmd                                           CMakeFiles/bootloader.dir/__/__/__/__/__/thirdparty/STM32F2xx_StdPeriph_Lib_V1.1.0/Libraries/STM32F2xx_StdPeriph_Driver/src/stm32f2xx_spi.c.o
                                                  CMakeFiles/bootloader.dir/__/__/__/__/taranis/diskio.cpp.o
SPI_DataSizeConfig                                CMakeFiles/bootloader.dir/__/__/__/__/__/thirdparty/STM32F2xx_StdPeriph_Lib_V1.1.0/Libraries/STM32F2xx_StdPeriph_Driver/src/stm32f2xx_spi.c.o
SPI_GetCRC                                        CMakeFiles/bootloader.dir/__/__/__/__/__/thirdparty/STM32F2xx_StdPeriph_Lib_V1.1.0/Libraries/STM32F2xx_StdPeriph_Driver/src/stm32f2xx_spi.c.o
SPI_GetCRCPolynomial                              CMakeFiles/bootloader.dir/__/__/__/__/__/thirdparty/STM32F2xx_StdPeriph_Lib_V1.1.0/Libraries/STM32F2xx_StdPeriph_Driver/src/stm32f2xx_spi.c.o
SPI_I2S_ClearFlag                                 CMakeFiles/bootloader.dir/__/__/__/__/__/thirdparty/STM32F2xx_StdPeriph_Lib_V1.1.0/Libraries/STM32F2xx_StdPeriph_Driver/src/stm32f2xx_spi.c.o
SPI_I2S_ClearITPendingBit                         CMakeFiles/bootloader.dir/__/__/__/__/__/thirdparty/STM32F2xx_StdPeriph_Lib_V1.1.0/Libraries/STM32F2xx_StdPeriph_Driver/src/stm32f2xx_spi.c.o
SPI_I2S_DMACmd                                    CMakeFiles/bootloader.dir/__/__/__/__/__/thirdparty/STM32F2xx_StdPeriph_Lib_V1.1.0/Libraries/STM32F2xx_StdPeriph_Driver/src/stm32f2xx_spi.c.o
SPI_I2S_DeInit                                    CMakeFiles/bootloader.dir/__/__/__/__/__/thirdparty/STM32F2xx_StdPeriph_Lib_V1.1.0/Libraries/STM32F2xx_StdPeriph_Driver/src/stm32f2xx_spi.c.o
                                                  CMakeFiles/bootloader.dir/__/__/__/__/taranis/diskio.cpp.o
SPI_I2S_GetFlagStatus                             CMakeFiles/bootloader.dir/__/__/__/__/__/thirdparty/STM32F2xx_StdPeriph_Lib_V1.1.0/Libraries/STM32F2xx_StdPeriph_Driver/src/stm32f2xx_spi.c.o
                                                  CMakeFiles/bootloader.dir/__/__/__/__/taranis/diskio.cpp.o
SPI_I2S_GetITStatus                               CMakeFiles/bootloader.dir/__/__/__/__/__/thirdparty/STM32F2xx_StdPeriph_Lib_V1.1.0/Libraries/STM32F2xx_StdPeriph_Driver/src/stm32f2xx_spi.c.o
SPI_I2S_ITConfig                                  CMakeFiles/bootloader.dir/__/__/__/__/__/thirdparty/STM32F2xx_StdPeriph_Lib_V1.1.0/Libraries/STM32F2xx_StdPeriph_Driver/src/stm32f2xx_spi.c.o
SPI_I2S_ReceiveData                               CMakeFiles/bootloader.dir/__/__/__/__/__/thirdparty/STM32F2xx_StdPeriph_Lib_V1.1.0/Libraries/STM32F2xx_StdPeriph_Driver/src/stm32f2xx_spi.c.o
                                                  CMakeFiles/bootloader.dir/__/__/__/__/taranis/diskio.cpp.o
SPI_I2S_SendData                                  CMakeFiles/bootloader.dir/__/__/__/__/__/thirdparty/STM32F2xx_StdPeriph_Lib_V1.1.0/Libraries/STM32F2xx_StdPeriph_Driver/src/stm32f2xx_spi.c.o
                                                  CMakeFiles/bootloader.dir/__/__/__/__/taranis/diskio.cpp.o
SPI_Init                                          CMakeFiles/bootloader.dir/__/__/__/__/__/thirdparty/STM32F2xx_StdPeriph_Lib_V1.1.0/Libraries/STM32F2xx_StdPeriph_Driver/src/stm32f2xx_spi.c.o
                                                  CMakeFiles/bootloader.dir/__/__/__/__/taranis/diskio.cpp.o
SPI_NSSInternalSoftwareConfig                     CMakeFiles/bootloader.dir/__/__/__/__/__/thirdparty/STM32F2xx_StdPeriph_Lib_V1.1.0/Libraries/STM32F2xx_StdPeriph_Driver/src/stm32f2xx_spi.c.o
SPI_SSOutputCmd                                   CMakeFiles/bootloader.dir/__/__/__/__/__/thirdparty/STM32F2xx_StdPeriph_Lib_V1.1.0/Libraries/STM32F2xx_StdPeriph_Driver/src/stm32f2xx_spi.c.o
SPI_StructInit                                    CMakeFiles/bootloader.dir/__/__/__/__/__/thirdparty/STM32F2xx_StdPeriph_Lib_V1.1.0/Libraries/STM32F2xx_StdPeriph_Driver/src/stm32f2xx_spi.c.o
SPI_TIModeCmd                                     CMakeFiles/bootloader.dir/__/__/__/__/__/thirdparty/STM32F2xx_StdPeriph_Lib_V1.1.0/Libraries/STM32F2xx_StdPeriph_Driver/src/stm32f2xx_spi.c.o
SPI_TransmitCRC                                   CMakeFiles/bootloader.dir/__/__/__/__/__/thirdparty/STM32F2xx_StdPeriph_Lib_V1.1.0/Libraries/STM32F2xx_StdPeriph_Driver/src/stm32f2xx_spi.c.o
STORAGE_GetCapacity                               CMakeFiles/bootloader.dir/__/usbd_storage_msd.cpp.o
STORAGE_GetMaxLun                                 CMakeFiles/bootloader.dir/__/usbd_storage_msd.cpp.o
STORAGE_Init                                      CMakeFiles/bootloader.dir/__/usbd_storage_msd.cpp.o
STORAGE_IsReady                                   CMakeFiles/bootloader.dir/__/usbd_storage_msd.cpp.o
STORAGE_IsWriteProtected                          CMakeFiles/bootloader.dir/__/usbd_storage_msd.cpp.o
STORAGE_Read                                      CMakeFiles/bootloader.dir/__/usbd_storage_msd.cpp.o
STORAGE_Write                                     CMakeFiles/bootloader.dir/__/usbd_storage_msd.cpp.o
SVC_Handler                                       CMakeFiles/bootloader.dir/__/__/__/__/__/thirdparty/STM32F2xx_StdPeriph_Lib_V1.1.0/Libraries/CMSIS/Device/ST/STM32F2xx/Source/Templates/gcc_ride7/startup_stm32f2xx.s.o
SYSCFG_CompensationCellCmd                        CMakeFiles/bootloader.dir/__/__/__/__/__/thirdparty/STM32F2xx_StdPeriph_Lib_V1.1.0/Libraries/STM32F2xx_StdPeriph_Driver/src/stm32f2xx_syscfg.c.o
SYSCFG_DeInit                                     CMakeFiles/bootloader.dir/__/__/__/__/__/thirdparty/STM32F2xx_StdPeriph_Lib_V1.1.0/Libraries/STM32F2xx_StdPeriph_Driver/src/stm32f2xx_syscfg.c.o
SYSCFG_ETH_MediaInterfaceConfig                   CMakeFiles/bootloader.dir/__/__/__/__/__/thirdparty/STM32F2xx_StdPeriph_Lib_V1.1.0/Libraries/STM32F2xx_StdPeriph_Driver/src/stm32f2xx_syscfg.c.o
SYSCFG_EXTILineConfig                             CMakeFiles/bootloader.dir/__/__/__/__/__/thirdparty/STM32F2xx_StdPeriph_Lib_V1.1.0/Libraries/STM32F2xx_StdPeriph_Driver/src/stm32f2xx_syscfg.c.o
                                                  CMakeFiles/bootloader.dir/__/rotary_encoder_driver.cpp.o
SYSCFG_GetCompensationCellStatus                  CMakeFiles/bootloader.dir/__/__/__/__/__/thirdparty/STM32F2xx_StdPeriph_Lib_V1.1.0/Libraries/STM32F2xx_StdPeriph_Driver/src/stm32f2xx_syscfg.c.o
SYSCFG_MemoryRemapConfig                          CMakeFiles/bootloader.dir/__/__/__/__/__/thirdparty/STM32F2xx_StdPeriph_Lib_V1.1.0/Libraries/STM32F2xx_StdPeriph_Driver/src/stm32f2xx_syscfg.c.o
SysTick_CLKSourceConfig                           CMakeFiles/bootloader.dir/__/__/__/__/__/thirdparty/STM32F2xx_StdPeriph_Lib_V1.1.0/Libraries/STM32F2xx_StdPeriph_Driver/src/misc.c.o
SysTick_Handler                                   CMakeFiles/bootloader.dir/__/__/__/__/__/thirdparty/STM32F2xx_StdPeriph_Lib_V1.1.0/Libraries/CMSIS/Device/ST/STM32F2xx/Source/Templates/gcc_ride7/startup_stm32f2xx.s.o
SystemCoreClock                                   CMakeFiles/bootloader.dir/__/f2/system_stm32f2xx.c.o
SystemCoreClockUpdate                             CMakeFiles/bootloader.dir/__/f2/system_stm32f2xx.c.o
SystemInit                                        CMakeFiles/bootloader.dir/__/f2/system_stm32f2xx.c.o
                                                  CMakeFiles/bootloader.dir/__/__/__/__/__/thirdparty/STM32F2xx_StdPeriph_Lib_V1.1.0/Libraries/CMSIS/Device/ST/STM32F2xx/Source/Templates/gcc_ride7/startup_stm32f2xx.s.o
TAMP_STAMP_IRQHandler                             CMakeFiles/bootloader.dir/__/__/__/__/__/thirdparty/STM32F2xx_StdPeriph_Lib_V1.1.0/Libraries/CMSIS/Device/ST/STM32F2xx/Source/Templates/gcc_ride7/startup_stm32f2xx.s.o
TIM1_BRK_TIM9_IRQHandler                          CMakeFiles/bootloader.dir/__/__/__/__/__/thirdparty/STM32F2xx_StdPeriph_Lib_V1.1.0/Libraries/CMSIS/Device/ST/STM32F2xx/Source/Templates/gcc_ride7/startup_stm32f2xx.s.o
TIM1_CC_IRQHandler                                CMakeFiles/bootloader.dir/__/__/__/__/__/thirdparty/STM32F2xx_StdPeriph_Lib_V1.1.0/Libraries/CMSIS/Device/ST/STM32F2xx/Source/Templates/gcc_ride7/startup_stm32f2xx.s.o
TIM1_TRG_COM_TIM11_IRQHandler                     CMakeFiles/bootloader.dir/__/__/__/__/__/thirdparty/STM32F2xx_StdPeriph_Lib_V1.1.0/Libraries/CMSIS/Device/ST/STM32F2xx/Source/Templates/gcc_ride7/startup_stm32f2xx.s.o
TIM1_UP_TIM10_IRQHandler                          CMakeFiles/bootloader.dir/__/__/__/__/__/thirdparty/STM32F2xx_StdPeriph_Lib_V1.1.0/Libraries/CMSIS/Device/ST/STM32F2xx/Source/Templates/gcc_ride7/startup_stm32f2xx.s.o
TIM2_IRQHandler                                   CMakeFiles/bootloader.dir/__/__/__/__/__/thirdparty/STM32F2xx_StdPeriph_Lib_V1.1.0/Libraries/CMSIS/Device/ST/STM32F2xx/Source/Templates/gcc_ride7/startup_stm32f2xx.s.o
TIM3_IRQHandler                                   CMakeFiles/bootloader.dir/__/__/__/__/__/thirdparty/STM32F2xx_StdPeriph_Lib_V1.1.0/Libraries/CMSIS/Device/ST/STM32F2xx/Source/Templates/gcc_ride7/startup_stm32f2xx.s.o
TIM4_IRQHandler                                   CMakeFiles/bootloader.dir/__/__/__/__/__/thirdparty/STM32F2xx_StdPeriph_Lib_V1.1.0/Libraries/CMSIS/Device/ST/STM32F2xx/Source/Templates/gcc_ride7/startup_stm32f2xx.s.o
TIM5_IRQHandler                                   CMakeFiles/bootloader.dir/__/rotary_encoder_driver.cpp.o
                                                  CMakeFiles/bootloader.dir/__/__/__/__/__/thirdparty/STM32F2xx_StdPeriph_Lib_V1.1.0/Libraries/CMSIS/Device/ST/STM32F2xx/Source/Templates/gcc_ride7/startup_stm32f2xx.s.o
TIM6_DAC_IRQHandler                               CMakeFiles/bootloader.dir/__/__/__/__/__/thirdparty/STM32F2xx_StdPeriph_Lib_V1.1.0/Libraries/CMSIS/Device/ST/STM32F2xx/Source/Templates/gcc_ride7/startup_stm32f2xx.s.o
TIM7_IRQHandler                                   CMakeFiles/bootloader.dir/__/__/__/__/__/thirdparty/STM32F2xx_StdPeriph_Lib_V1.1.0/Libraries/CMSIS/Device/ST/STM32F2xx/Source/Templates/gcc_ride7/startup_stm32f2xx.s.o
TIM8_BRK_TIM12_IRQHandler                         CMakeFiles/bootloader.dir/__/__/__/__/__/thirdparty/STM32F2xx_StdPeriph_Lib_V1.1.0/Libraries/CMSIS/Device/ST/STM32F2xx/Source/Templates/gcc_ride7/startup_stm32f2xx.s.o
TIM8_CC_IRQHandler                                CMakeFiles/bootloader.dir/__/__/__/__/__/thirdparty/STM32F2xx_StdPeriph_Lib_V1.1.0/Libraries/CMSIS/Device/ST/STM32F2xx/Source/Templates/gcc_ride7/startup_stm32f2xx.s.o
TIM8_TRG_COM_TIM14_IRQHandler                     CMakeFiles/bootloader.dir/boot.cpp.o
                                                  CMakeFiles/bootloader.dir/__/__/__/__/__/thirdparty/STM32F2xx_StdPeriph_Lib_V1.1.0/Libraries/CMSIS/Device/ST/STM32F2xx/Source/Templates/gcc_ride7/startup_stm32f2xx.s.o
TIM8_UP_TIM13_IRQHandler                          CMakeFiles/bootloader.dir/__/__/__/__/__/thirdparty/STM32F2xx_StdPeriph_Lib_V1.1.0/Libraries/CMSIS/Device/ST/STM32F2xx/Source/Templates/gcc_ride7/startup_stm32f2xx.s.o
UART4_IRQHandler                                  CMakeFiles/bootloader.dir/__/__/__/__/__/thirdparty/STM32F2xx_StdPeriph_Lib_V1.1.0/Libraries/CMSIS/Device/ST/STM32F2xx/Source/Templates/gcc_ride7/startup_stm32f2xx.s.o
UART5_IRQHandler                                  CMakeFiles/bootloader.dir/__/__/__/__/__/thirdparty/STM32F2xx_StdPeriph_Lib_V1.1.0/Libraries/CMSIS/Device/ST/STM32F2xx/Source/Templates/gcc_ride7/startup_stm32f2xx.s.o
USART1_IRQHandler                                 CMakeFiles/bootloader.dir/__/__/__/__/__/thirdparty/STM32F2xx_StdPeriph_Lib_V1.1.0/Libraries/CMSIS/Device/ST/STM32F2xx/Source/Templates/gcc_ride7/startup_stm32f2xx.s.o
USART2_IRQHandler                                 CMakeFiles/bootloader.dir/__/__/__/__/__/thirdparty/STM32F2xx_StdPeriph_Lib_V1.1.0/Libraries/CMSIS/Device/ST/STM32F2xx/Source/Templates/gcc_ride7/startup_stm32f2xx.s.o
USART3_IRQHandler                                 CMakeFiles/bootloader.dir/__/__/__/__/__/thirdparty/STM32F2xx_StdPeriph_Lib_V1.1.0/Libraries/CMSIS/Device/ST/STM32F2xx/Source/Templates/gcc_ride7/startup_stm32f2xx.s.o
USART6_IRQHandler                                 CMakeFiles/bootloader.dir/__/__/__/__/__/thirdparty/STM32F2xx_StdPeriph_Lib_V1.1.0/Libraries/CMSIS/Device/ST/STM32F2xx/Source/Templates/gcc_ride7/startup_stm32f2xx.s.o
USBD_ClrCfg                                       CMakeFiles/bootloader.dir/__/__/__/__/__/thirdparty/STM32_USB-Host-Device_Lib_V2.2.0/Libraries/STM32_USB_Device_Library/Core/src/usbd_core.c.o
                                                  CMakeFiles/bootloader.dir/__/__/__/__/__/thirdparty/STM32_USB-Host-Device_Lib_V2.2.0/Libraries/STM32_USB_Device_Library/Core/src/usbd_req.c.o
USBD_CtlContinueRx                                CMakeFiles/bootloader.dir/__/__/__/__/__/thirdparty/STM32_USB-Host-Device_Lib_V2.2.0/Libraries/STM32_USB_Device_Library/Core/src/usbd_ioreq.c.o
                                                  CMakeFiles/bootloader.dir/__/__/__/__/__/thirdparty/STM32_USB-Host-Device_Lib_V2.2.0/Libraries/STM32_USB_Device_Library/Core/src/usbd_core.c.o
USBD_CtlContinueSendData                          CMakeFiles/bootloader.dir/__/__/__/__/__/thirdparty/STM32_USB-Host-Device_Lib_V2.2.0/Libraries/STM32_USB_Device_Library/Core/src/usbd_ioreq.c.o
                                                  CMakeFiles/bootloader.dir/__/__/__/__/__/thirdparty/STM32_USB-Host-Device_Lib_V2.2.0/Libraries/STM32_USB_Device_Library/Core/src/usbd_core.c.o
USBD_CtlError                                     CMakeFiles/bootloader.dir/__/__/__/__/__/thirdparty/STM32_USB-Host-Device_Lib_V2.2.0/Libraries/STM32_USB_Device_Library/Core/src/usbd_req.c.o
                                                  CMakeFiles/bootloader.dir/__/__/__/__/__/thirdparty/STM32_USB-Host-Device_Lib_V2.2.0/Libraries/STM32_USB_Device_Library/Class/msc/src/usbd_msc_core.c.o
USBD_CtlPrepareRx                                 CMakeFiles/bootloader.dir/__/__/__/__/__/thirdparty/STM32_USB-Host-Device_Lib_V2.2.0/Libraries/STM32_USB_Device_Library/Core/src/usbd_ioreq.c.o
USBD_CtlReceiveStatus                             CMakeFiles/bootloader.dir/__/__/__/__/__/thirdparty/STM32_USB-Host-Device_Lib_V2.2.0/Libraries/STM32_USB_Device_Library/Core/src/usbd_ioreq.c.o
                                                  CMakeFiles/bootloader.dir/__/__/__/__/__/thirdparty/STM32_USB-Host-Device_Lib_V2.2.0/Libraries/STM32_USB_Device_Library/Core/src/usbd_core.c.o
USBD_CtlSendData                                  CMakeFiles/bootloader.dir/__/__/__/__/__/thirdparty/STM32_USB-Host-Device_Lib_V2.2.0/Libraries/STM32_USB_Device_Library/Core/src/usbd_ioreq.c.o
                                                  CMakeFiles/bootloader.dir/__/__/__/__/__/thirdparty/STM32_USB-Host-Device_Lib_V2.2.0/Libraries/STM32_USB_Device_Library/Class/msc/src/usbd_msc_core.c.o
                                                  CMakeFiles/bootloader.dir/__/__/__/__/__/thirdparty/STM32_USB-Host-Device_Lib_V2.2.0/Libraries/STM32_USB_Device_Library/Core/src/usbd_req.c.o
USBD_CtlSendStatus                                CMakeFiles/bootloader.dir/__/__/__/__/__/thirdparty/STM32_USB-Host-Device_Lib_V2.2.0/Libraries/STM32_USB_Device_Library/Core/src/usbd_ioreq.c.o
                                                  CMakeFiles/bootloader.dir/__/__/__/__/__/thirdparty/STM32_USB-Host-Device_Lib_V2.2.0/Libraries/STM32_USB_Device_Library/Core/src/usbd_req.c.o
                                                  CMakeFiles/bootloader.dir/__/__/__/__/__/thirdparty/STM32_USB-Host-Device_Lib_V2.2.0/Libraries/STM32_USB_Device_Library/Core/src/usbd_core.c.o
USBD_DCD_INT_cb                                   CMakeFiles/bootloader.dir/__/__/__/__/__/thirdparty/STM32_USB-Host-Device_Lib_V2.2.0/Libraries/STM32_USB_Device_Library/Core/src/usbd_core.c.o
USBD_DCD_INT_fops                                 CMakeFiles/bootloader.dir/__/__/__/__/__/thirdparty/STM32_USB-Host-Device_Lib_V2.2.0/Libraries/STM32_USB_Device_Library/Core/src/usbd_core.c.o
                                                  CMakeFiles/bootloader.dir/__/__/__/__/__/thirdparty/STM32_USB-Host-Device_Lib_V2.2.0/Libraries/STM32_USB_OTG_Driver/src/usb_dcd_int.c.o
USBD_DeInit                                       CMakeFiles/bootloader.dir/__/__/__/__/__/thirdparty/STM32_USB-Host-Device_Lib_V2.2.0/Libraries/STM32_USB_Device_Library/Core/src/usbd_core.c.o
                                                  CMakeFiles/bootloader.dir/__/usb_driver.cpp.o
USBD_DeviceQualifierDesc                          CMakeFiles/bootloader.dir/__/usbd_desc.c.o
USBD_GetRxCount                                   CMakeFiles/bootloader.dir/__/__/__/__/__/thirdparty/STM32_USB-Host-Device_Lib_V2.2.0/Libraries/STM32_USB_Device_Library/Core/src/usbd_ioreq.c.o
                                                  CMakeFiles/bootloader.dir/__/__/__/__/__/thirdparty/STM32_USB-Host-Device_Lib_V2.2.0/Libraries/STM32_USB_Device_Library/Class/msc/src/usbd_msc_bot.c.o
USBD_GetString                                    CMakeFiles/bootloader.dir/__/__/__/__/__/thirdparty/STM32_USB-Host-Device_Lib_V2.2.0/Libraries/STM32_USB_Device_Library/Core/src/usbd_req.c.o
                                                  CMakeFiles/bootloader.dir/__/usbd_desc.c.o
USBD_Init                                         CMakeFiles/bootloader.dir/__/__/__/__/__/thirdparty/STM32_USB-Host-Device_Lib_V2.2.0/Libraries/STM32_USB_Device_Library/Core/src/usbd_core.c.o
                                                  CMakeFiles/bootloader.dir/__/usb_driver.cpp.o
USBD_LangIDDesc                                   CMakeFiles/bootloader.dir/__/usbd_desc.c.o
USBD_MSC_CfgDesc                                  CMakeFiles/bootloader.dir/__/__/__/__/__/thirdparty/STM32_USB-Host-Device_Lib_V2.2.0/Libraries/STM32_USB_Device_Library/Class/msc/src/usbd_msc_core.c.o
USBD_MSC_DataIn                                   CMakeFiles/bootloader.dir/__/__/__/__/__/thirdparty/STM32_USB-Host-Device_Lib_V2.2.0/Libraries/STM32_USB_Device_Library/Class/msc/src/usbd_msc_core.c.o
USBD_MSC_DataOut                                  CMakeFiles/bootloader.dir/__/__/__/__/__/thirdparty/STM32_USB-Host-Device_Lib_V2.2.0/Libraries/STM32_USB_Device_Library/Class/msc/src/usbd_msc_core.c.o
USBD_MSC_DeInit                                   CMakeFiles/bootloader.dir/__/__/__/__/__/thirdparty/STM32_USB-Host-Device_Lib_V2.2.0/Libraries/STM32_USB_Device_Library/Class/msc/src/usbd_msc_core.c.o
USBD_MSC_GetCfgDesc                               CMakeFiles/bootloader.dir/__/__/__/__/__/thirdparty/STM32_USB-Host-Device_Lib_V2.2.0/Libraries/STM32_USB_Device_Library/Class/msc/src/usbd_msc_core.c.o
USBD_MSC_Init                                     CMakeFiles/bootloader.dir/__/__/__/__/__/thirdparty/STM32_USB-Host-Device_Lib_V2.2.0/Libraries/STM32_USB_Device_Library/Class/msc/src/usbd_msc_core.c.o
USBD_MSC_Setup                                    CMakeFiles/bootloader.dir/__/__/__/__/__/thirdparty/STM32_USB-Host-Device_Lib_V2.2.0/Libraries/STM32_USB_Device_Library/Class/msc/src/usbd_msc_core.c.o
USBD_MSC_cb                                       CMakeFiles/bootloader.dir/__/__/__/__/__/thirdparty/STM32_USB-Host-Device_Lib_V2.2.0/Libraries/STM32_USB_Device_Library/Class/msc/src/usbd_msc_core.c.o
                                                  CMakeFiles/bootloader.dir/__/usb_driver.cpp.o
USBD_OTG_ISR_Handler                              CMakeFiles/bootloader.dir/__/__/__/__/__/thirdparty/STM32_USB-Host-Device_Lib_V2.2.0/Libraries/STM32_USB_OTG_Driver/src/usb_dcd_int.c.o
                                                  CMakeFiles/bootloader.dir/__/usb_driver.cpp.o
USBD_ParseSetupRequest                            CMakeFiles/bootloader.dir/__/__/__/__/__/thirdparty/STM32_USB-Host-Device_Lib_V2.2.0/Libraries/STM32_USB_Device_Library/Core/src/usbd_req.c.o
                                                  CMakeFiles/bootloader.dir/__/__/__/__/__/thirdparty/STM32_USB-Host-Device_Lib_V2.2.0/Libraries/STM32_USB_Device_Library/Core/src/usbd_core.c.o
USBD_STORAGE_fops                                 CMakeFiles/bootloader.dir/__/usbd_storage_msd.cpp.o
                                                  CMakeFiles/bootloader.dir/__/__/__/__/__/thirdparty/STM32_USB-Host-Device_Lib_V2.2.0/Libraries/STM32_USB_Device_Library/Class/msc/src/usbd_msc_core.c.o
                                                  CMakeFiles/bootloader.dir/__/__/__/__/__/thirdparty/STM32_USB-Host-Device_Lib_V2.2.0/Libraries/STM32_USB_Device_Library/Class/msc/src/usbd_msc_bot.c.o
                                                  CMakeFiles/bootloader.dir/__/__/__/__/__/thirdparty/STM32_USB-Host-Device_Lib_V2.2.0/Libraries/STM32_USB_Device_Library/Class/msc/src/usbd_msc_scsi.c.o
USBD_SetCfg                                       CMakeFiles/bootloader.dir/__/__/__/__/__/thirdparty/STM32_USB-Host-Device_Lib_V2.2.0/Libraries/STM32_USB_Device_Library/Core/src/usbd_core.c.o
                                                  CMakeFiles/bootloader.dir/__/__/__/__/__/thirdparty/STM32_USB-Host-Device_Lib_V2.2.0/Libraries/STM32_USB_Device_Library/Core/src/usbd_req.c.o
USBD_StdDevReq                                    CMakeFiles/bootloader.dir/__/__/__/__/__/thirdparty/STM32_USB-Host-Device_Lib_V2.2.0/Libraries/STM32_USB_Device_Library/Core/src/usbd_req.c.o
                                                  CMakeFiles/bootloader.dir/__/__/__/__/__/thirdparty/STM32_USB-Host-Device_Lib_V2.2.0/Libraries/STM32_USB_Device_Library/Core/src/usbd_core.c.o
USBD_StdEPReq                                     CMakeFiles/bootloader.dir/__/__/__/__/__/thirdparty/STM32_USB-Host-Device_Lib_V2.2.0/Libraries/STM32_USB_Device_Library/Core/src/usbd_req.c.o
                                                  CMakeFiles/bootloader.dir/__/__/__/__/__/thirdparty/STM32_USB-Host-Device_Lib_V2.2.0/Libraries/STM32_USB_Device_Library/Core/src/usbd_core.c.o
USBD_StdItfReq                                    CMakeFiles/bootloader.dir/__/__/__/__/__/thirdparty/STM32_USB-Host-Device_Lib_V2.2.0/Libraries/STM32_USB_Device_Library/Core/src/usbd_req.c.o
                                                  CMakeFiles/bootloader.dir/__/__/__/__/__/thirdparty/STM32_USB-Host-Device_Lib_V2.2.0/Libraries/STM32_USB_Device_Library/Core/src/usbd_core.c.o
USBD_StrDesc                                      CMakeFiles/bootloader.dir/__/usbd_desc.c.o
USBD_USR_ConfigStrDescriptor                      CMakeFiles/bootloader.dir/__/usbd_desc.c.o
USBD_USR_DeviceConfigured                         CMakeFiles/bootloader.dir/__/usbd_usr.cpp.o
USBD_USR_DeviceConnected                          CMakeFiles/bootloader.dir/__/usbd_usr.cpp.o
USBD_USR_DeviceDescriptor                         CMakeFiles/bootloader.dir/__/usbd_desc.c.o
USBD_USR_DeviceDisconnected                       CMakeFiles/bootloader.dir/__/usbd_usr.cpp.o
USBD_USR_DeviceReset                              CMakeFiles/bootloader.dir/__/usbd_usr.cpp.o
USBD_USR_DeviceResumed                            CMakeFiles/bootloader.dir/__/usbd_usr.cpp.o
USBD_USR_DeviceSuspended                          CMakeFiles/bootloader.dir/__/usbd_usr.cpp.o
USBD_USR_Init                                     CMakeFiles/bootloader.dir/__/usbd_usr.cpp.o
USBD_USR_InterfaceStrDescriptor                   CMakeFiles/bootloader.dir/__/usbd_desc.c.o
USBD_USR_LangIDStrDescriptor                      CMakeFiles/bootloader.dir/__/usbd_desc.c.o
USBD_USR_ManufacturerStrDescriptor                CMakeFiles/bootloader.dir/__/usbd_desc.c.o
USBD_USR_ProductStrDescriptor                     CMakeFiles/bootloader.dir/__/usbd_desc.c.o
USBD_USR_SerialStrDescriptor                      CMakeFiles/bootloader.dir/__/usbd_desc.c.o
USBD_cfg_status                                   CMakeFiles/bootloader.dir/__/__/__/__/__/thirdparty/STM32_USB-Host-Device_Lib_V2.2.0/Libraries/STM32_USB_Device_Library/Core/src/usbd_req.c.o
USBD_default_cfg                                  CMakeFiles/bootloader.dir/__/__/__/__/__/thirdparty/STM32_USB-Host-Device_Lib_V2.2.0/Libraries/STM32_USB_Device_Library/Core/src/usbd_req.c.o
USBD_ep_status                                    CMakeFiles/bootloader.dir/__/__/__/__/__/thirdparty/STM32_USB-Host-Device_Lib_V2.2.0/Libraries/STM32_USB_Device_Library/Core/src/usbd_req.c.o
USB_OTG_ActiveRemoteWakeup                        CMakeFiles/bootloader.dir/__/__/__/__/__/thirdparty/STM32_USB-Host-Device_Lib_V2.2.0/Libraries/STM32_USB_OTG_Driver/src/usb_core.c.o
USB_OTG_BSP_Deinit                                CMakeFiles/bootloader.dir/__/usb_bsp.c.o
                                                  CMakeFiles/bootloader.dir/__/__/__/__/__/thirdparty/STM32_USB-Host-Device_Lib_V2.2.0/Libraries/STM32_USB_Device_Library/Core/src/usbd_core.c.o
USB_OTG_BSP_DisableInterrupt                      CMakeFiles/bootloader.dir/__/usb_bsp.c.o
                                                  CMakeFiles/bootloader.dir/__/__/__/__/__/thirdparty/STM32_USB-Host-Device_Lib_V2.2.0/Libraries/STM32_USB_Device_Library/Core/src/usbd_core.c.o
USB_OTG_BSP_EnableInterrupt                       CMakeFiles/bootloader.dir/__/usb_bsp.c.o
                                                  CMakeFiles/bootloader.dir/__/__/__/__/__/thirdparty/STM32_USB-Host-Device_Lib_V2.2.0/Libraries/STM32_USB_Device_Library/Core/src/usbd_core.c.o
USB_OTG_BSP_Init                                  CMakeFiles/bootloader.dir/__/usb_bsp.c.o
                                                  CMakeFiles/bootloader.dir/__/usb_driver.cpp.o
                                                  CMakeFiles/bootloader.dir/__/__/__/__/__/thirdparty/STM32_USB-Host-Device_Lib_V2.2.0/Libraries/STM32_USB_Device_Library/Core/src/usbd_core.c.o
USB_OTG_BSP_mDelay                                CMakeFiles/bootloader.dir/__/usb_bsp.c.o
                                                  CMakeFiles/bootloader.dir/__/__/__/__/__/thirdparty/STM32_USB-Host-Device_Lib_V2.2.0/Libraries/STM32_USB_OTG_Driver/src/usb_dcd.c.o
                                                  CMakeFiles/bootloader.dir/__/__/__/__/__/thirdparty/STM32_USB-Host-Device_Lib_V2.2.0/Libraries/STM32_USB_OTG_Driver/src/usb_core.c.o
USB_OTG_BSP_uDelay                                CMakeFiles/bootloader.dir/__/usb_bsp.c.o
                                                  CMakeFiles/bootloader.dir/__/__/__/__/__/thirdparty/STM32_USB-Host-Device_Lib_V2.2.0/Libraries/STM32_USB_OTG_Driver/src/usb_core.c.o
USB_OTG_CoreInit                                  CMakeFiles/bootloader.dir/__/__/__/__/__/thirdparty/STM32_USB-Host-Device_Lib_V2.2.0/Libraries/STM32_USB_OTG_Driver/src/usb_core.c.o
                                                  CMakeFiles/bootloader.dir/__/__/__/__/__/thirdparty/STM32_USB-Host-Device_Lib_V2.2.0/Libraries/STM32_USB_OTG_Driver/src/usb_dcd.c.o
USB_OTG_CoreInitDev                               CMakeFiles/bootloader.dir/__/__/__/__/__/thirdparty/STM32_USB-Host-Device_Lib_V2.2.0/Libraries/STM32_USB_OTG_Driver/src/usb_core.c.o
                                                  CMakeFiles/bootloader.dir/__/__/__/__/__/thirdparty/STM32_USB-Host-Device_Lib_V2.2.0/Libraries/STM32_USB_OTG_Driver/src/usb_dcd.c.o
USB_OTG_DisableGlobalInt                          CMakeFiles/bootloader.dir/__/__/__/__/__/thirdparty/STM32_USB-Host-Device_Lib_V2.2.0/Libraries/STM32_USB_OTG_Driver/src/usb_core.c.o
                                                  CMakeFiles/bootloader.dir/__/__/__/__/__/thirdparty/STM32_USB-Host-Device_Lib_V2.2.0/Libraries/STM32_USB_Device_Library/Core/src/usbd_core.c.o
                                                  CMakeFiles/bootloader.dir/__/__/__/__/__/thirdparty/STM32_USB-Host-Device_Lib_V2.2.0/Libraries/STM32_USB_OTG_Driver/src/usb_dcd.c.o
USB_OTG_EP0Activate                               CMakeFiles/bootloader.dir/__/__/__/__/__/thirdparty/STM32_USB-Host-Device_Lib_V2.2.0/Libraries/STM32_USB_OTG_Driver/src/usb_core.c.o
                                                  CMakeFiles/bootloader.dir/__/__/__/__/__/thirdparty/STM32_USB-Host-Device_Lib_V2.2.0/Libraries/STM32_USB_OTG_Driver/src/usb_dcd_int.c.o
USB_OTG_EP0StartXfer                              CMakeFiles/bootloader.dir/__/__/__/__/__/thirdparty/STM32_USB-Host-Device_Lib_V2.2.0/Libraries/STM32_USB_OTG_Driver/src/usb_core.c.o
                                                  CMakeFiles/bootloader.dir/__/__/__/__/__/thirdparty/STM32_USB-Host-Device_Lib_V2.2.0/Libraries/STM32_USB_OTG_Driver/src/usb_dcd.c.o
USB_OTG_EP0_OutStart                              CMakeFiles/bootloader.dir/__/__/__/__/__/thirdparty/STM32_USB-Host-Device_Lib_V2.2.0/Libraries/STM32_USB_OTG_Driver/src/usb_core.c.o
                                                  CMakeFiles/bootloader.dir/__/__/__/__/__/thirdparty/STM32_USB-Host-Device_Lib_V2.2.0/Libraries/STM32_USB_Device_Library/Core/src/usbd_req.c.o
                                                  CMakeFiles/bootloader.dir/__/__/__/__/__/thirdparty/STM32_USB-Host-Device_Lib_V2.2.0/Libraries/STM32_USB_Device_Library/Core/src/usbd_ioreq.c.o
                                                  CMakeFiles/bootloader.dir/__/__/__/__/__/thirdparty/STM32_USB-Host-Device_Lib_V2.2.0/Libraries/STM32_USB_OTG_Driver/src/usb_dcd_int.c.o
USB_OTG_EPActivate                                CMakeFiles/bootloader.dir/__/__/__/__/__/thirdparty/STM32_USB-Host-Device_Lib_V2.2.0/Libraries/STM32_USB_OTG_Driver/src/usb_core.c.o
                                                  CMakeFiles/bootloader.dir/__/__/__/__/__/thirdparty/STM32_USB-Host-Device_Lib_V2.2.0/Libraries/STM32_USB_OTG_Driver/src/usb_dcd.c.o
USB_OTG_EPClearStall                              CMakeFiles/bootloader.dir/__/__/__/__/__/thirdparty/STM32_USB-Host-Device_Lib_V2.2.0/Libraries/STM32_USB_OTG_Driver/src/usb_core.c.o
                                                  CMakeFiles/bootloader.dir/__/__/__/__/__/thirdparty/STM32_USB-Host-Device_Lib_V2.2.0/Libraries/STM32_USB_OTG_Driver/src/usb_dcd.c.o
USB_OTG_EPDeactivate                              CMakeFiles/bootloader.dir/__/__/__/__/__/thirdparty/STM32_USB-Host-Device_Lib_V2.2.0/Libraries/STM32_USB_OTG_Driver/src/usb_core.c.o
                                                  CMakeFiles/bootloader.dir/__/__/__/__/__/thirdparty/STM32_USB-Host-Device_Lib_V2.2.0/Libraries/STM32_USB_OTG_Driver/src/usb_dcd.c.o
USB_OTG_EPSetStall                                CMakeFiles/bootloader.dir/__/__/__/__/__/thirdparty/STM32_USB-Host-Device_Lib_V2.2.0/Libraries/STM32_USB_OTG_Driver/src/usb_core.c.o
                                                  CMakeFiles/bootloader.dir/__/__/__/__/__/thirdparty/STM32_USB-Host-Device_Lib_V2.2.0/Libraries/STM32_USB_OTG_Driver/src/usb_dcd.c.o
USB_OTG_EPStartXfer                               CMakeFiles/bootloader.dir/__/__/__/__/__/thirdparty/STM32_USB-Host-Device_Lib_V2.2.0/Libraries/STM32_USB_OTG_Driver/src/usb_core.c.o
                                                  CMakeFiles/bootloader.dir/__/__/__/__/__/thirdparty/STM32_USB-Host-Device_Lib_V2.2.0/Libraries/STM32_USB_OTG_Driver/src/usb_dcd.c.o
USB_OTG_EnableDevInt                              CMakeFiles/bootloader.dir/__/__/__/__/__/thirdparty/STM32_USB-Host-Device_Lib_V2.2.0/Libraries/STM32_USB_OTG_Driver/src/usb_core.c.o
USB_OTG_EnableGlobalInt                           CMakeFiles/bootloader.dir/__/__/__/__/__/thirdparty/STM32_USB-Host-Device_Lib_V2.2.0/Libraries/STM32_USB_OTG_Driver/src/usb_core.c.o
                                                  CMakeFiles/bootloader.dir/__/__/__/__/__/thirdparty/STM32_USB-Host-Device_Lib_V2.2.0/Libraries/STM32_USB_OTG_Driver/src/usb_dcd.c.o
USB_OTG_FlushRxFifo                               CMakeFiles/bootloader.dir/__/__/__/__/__/thirdparty/STM32_USB-Host-Device_Lib_V2.2.0/Libraries/STM32_USB_OTG_Driver/src/usb_core.c.o
                                                  CMakeFiles/bootloader.dir/__/__/__/__/__/thirdparty/STM32_USB-Host-Device_Lib_V2.2.0/Libraries/STM32_USB_OTG_Driver/src/usb_dcd.c.o
USB_OTG_FlushTxFifo                               CMakeFiles/bootloader.dir/__/__/__/__/__/thirdparty/STM32_USB-Host-Device_Lib_V2.2.0/Libraries/STM32_USB_OTG_Driver/src/usb_core.c.o
                                                  CMakeFiles/bootloader.dir/__/__/__/__/__/thirdparty/STM32_USB-Host-Device_Lib_V2.2.0/Libraries/STM32_USB_OTG_Driver/src/usb_dcd_int.c.o
                                                  CMakeFiles/bootloader.dir/__/__/__/__/__/thirdparty/STM32_USB-Host-Device_Lib_V2.2.0/Libraries/STM32_USB_OTG_Driver/src/usb_dcd.c.o
USB_OTG_GetDeviceSpeed                            CMakeFiles/bootloader.dir/__/__/__/__/__/thirdparty/STM32_USB-Host-Device_Lib_V2.2.0/Libraries/STM32_USB_OTG_Driver/src/usb_core.c.o
                                                  CMakeFiles/bootloader.dir/__/__/__/__/__/thirdparty/STM32_USB-Host-Device_Lib_V2.2.0/Libraries/STM32_USB_OTG_Driver/src/usb_dcd_int.c.o
USB_OTG_GetEPStatus                               CMakeFiles/bootloader.dir/__/__/__/__/__/thirdparty/STM32_USB-Host-Device_Lib_V2.2.0/Libraries/STM32_USB_OTG_Driver/src/usb_core.c.o
                                                  CMakeFiles/bootloader.dir/__/__/__/__/__/thirdparty/STM32_USB-Host-Device_Lib_V2.2.0/Libraries/STM32_USB_OTG_Driver/src/usb_dcd.c.o
USB_OTG_GetMode                                   CMakeFiles/bootloader.dir/__/__/__/__/__/thirdparty/STM32_USB-Host-Device_Lib_V2.2.0/Libraries/STM32_USB_OTG_Driver/src/usb_core.c.o
USB_OTG_InitDevSpeed                              CMakeFiles/bootloader.dir/__/__/__/__/__/thirdparty/STM32_USB-Host-Device_Lib_V2.2.0/Libraries/STM32_USB_OTG_Driver/src/usb_core.c.o
USB_OTG_IsDeviceMode                              CMakeFiles/bootloader.dir/__/__/__/__/__/thirdparty/STM32_USB-Host-Device_Lib_V2.2.0/Libraries/STM32_USB_OTG_Driver/src/usb_core.c.o
                                                  CMakeFiles/bootloader.dir/__/__/__/__/__/thirdparty/STM32_USB-Host-Device_Lib_V2.2.0/Libraries/STM32_USB_OTG_Driver/src/usb_dcd_int.c.o
USB_OTG_IsHostMode                                CMakeFiles/bootloader.dir/__/__/__/__/__/thirdparty/STM32_USB-Host-Device_Lib_V2.2.0/Libraries/STM32_USB_OTG_Driver/src/usb_core.c.o
USB_OTG_ReadCoreItr                               CMakeFiles/bootloader.dir/__/__/__/__/__/thirdparty/STM32_USB-Host-Device_Lib_V2.2.0/Libraries/STM32_USB_OTG_Driver/src/usb_core.c.o
                                                  CMakeFiles/bootloader.dir/__/__/__/__/__/thirdparty/STM32_USB-Host-Device_Lib_V2.2.0/Libraries/STM32_USB_OTG_Driver/src/usb_dcd_int.c.o
USB_OTG_ReadDevAllInEPItr                         CMakeFiles/bootloader.dir/__/__/__/__/__/thirdparty/STM32_USB-Host-Device_Lib_V2.2.0/Libraries/STM32_USB_OTG_Driver/src/usb_core.c.o
                                                  CMakeFiles/bootloader.dir/__/__/__/__/__/thirdparty/STM32_USB-Host-Device_Lib_V2.2.0/Libraries/STM32_USB_OTG_Driver/src/usb_dcd_int.c.o
USB_OTG_ReadDevAllOutEp_itr                       CMakeFiles/bootloader.dir/__/__/__/__/__/thirdparty/STM32_USB-Host-Device_Lib_V2.2.0/Libraries/STM32_USB_OTG_Driver/src/usb_core.c.o
                                                  CMakeFiles/bootloader.dir/__/__/__/__/__/thirdparty/STM32_USB-Host-Device_Lib_V2.2.0/Libraries/STM32_USB_OTG_Driver/src/usb_dcd_int.c.o
USB_OTG_ReadDevOutEP_itr                          CMakeFiles/bootloader.dir/__/__/__/__/__/thirdparty/STM32_USB-Host-Device_Lib_V2.2.0/Libraries/STM32_USB_OTG_Driver/src/usb_core.c.o
                                                  CMakeFiles/bootloader.dir/__/__/__/__/__/thirdparty/STM32_USB-Host-Device_Lib_V2.2.0/Libraries/STM32_USB_OTG_Driver/src/usb_dcd_int.c.o
USB_OTG_ReadOtgItr                                CMakeFiles/bootloader.dir/__/__/__/__/__/thirdparty/STM32_USB-Host-Device_Lib_V2.2.0/Libraries/STM32_USB_OTG_Driver/src/usb_core.c.o
USB_OTG_ReadPacket                                CMakeFiles/bootloader.dir/__/__/__/__/__/thirdparty/STM32_USB-Host-Device_Lib_V2.2.0/Libraries/STM32_USB_OTG_Driver/src/usb_core.c.o
                                                  CMakeFiles/bootloader.dir/__/__/__/__/__/thirdparty/STM32_USB-Host-Device_Lib_V2.2.0/Libraries/STM32_USB_OTG_Driver/src/usb_dcd_int.c.o
USB_OTG_SelectCore                                CMakeFiles/bootloader.dir/__/__/__/__/__/thirdparty/STM32_USB-Host-Device_Lib_V2.2.0/Libraries/STM32_USB_OTG_Driver/src/usb_core.c.o
                                                  CMakeFiles/bootloader.dir/__/__/__/__/__/thirdparty/STM32_USB-Host-Device_Lib_V2.2.0/Libraries/STM32_USB_OTG_Driver/src/usb_dcd.c.o
USB_OTG_SetCurrentMode                            CMakeFiles/bootloader.dir/__/__/__/__/__/thirdparty/STM32_USB-Host-Device_Lib_V2.2.0/Libraries/STM32_USB_OTG_Driver/src/usb_core.c.o
                                                  CMakeFiles/bootloader.dir/__/__/__/__/__/thirdparty/STM32_USB-Host-Device_Lib_V2.2.0/Libraries/STM32_USB_OTG_Driver/src/usb_dcd.c.o
USB_OTG_SetEPStatus                               CMakeFiles/bootloader.dir/__/__/__/__/__/thirdparty/STM32_USB-Host-Device_Lib_V2.2.0/Libraries/STM32_USB_OTG_Driver/src/usb_core.c.o
                                                  CMakeFiles/bootloader.dir/__/__/__/__/__/thirdparty/STM32_USB-Host-Device_Lib_V2.2.0/Libraries/STM32_USB_OTG_Driver/src/usb_dcd.c.o
USB_OTG_StopDevice                                CMakeFiles/bootloader.dir/__/__/__/__/__/thirdparty/STM32_USB-Host-Device_Lib_V2.2.0/Libraries/STM32_USB_OTG_Driver/src/usb_core.c.o
USB_OTG_UngateClock                               CMakeFiles/bootloader.dir/__/__/__/__/__/thirdparty/STM32_USB-Host-Device_Lib_V2.2.0/Libraries/STM32_USB_OTG_Driver/src/usb_core.c.o
USB_OTG_WritePacket                               CMakeFiles/bootloader.dir/__/__/__/__/__/thirdparty/STM32_USB-Host-Device_Lib_V2.2.0/Libraries/STM32_USB_OTG_Driver/src/usb_core.c.o
                                                  CMakeFiles/bootloader.dir/__/__/__/__/__/thirdparty/STM32_USB-Host-Device_Lib_V2.2.0/Libraries/STM32_USB_OTG_Driver/src/usb_dcd_int.c.o
USB_OTG_dev                                       CMakeFiles/bootloader.dir/__/usb_driver.cpp.o
USR_cb                                            CMakeFiles/bootloader.dir/__/usbd_usr.cpp.o
                                                  CMakeFiles/bootloader.dir/__/usb_driver.cpp.o
USR_desc                                          CMakeFiles/bootloader.dir/__/usbd_desc.c.o
                                                  CMakeFiles/bootloader.dir/__/usb_driver.cpp.o
UsageFault_Handler                                CMakeFiles/bootloader.dir/__/__/__/__/__/thirdparty/STM32F2xx_StdPeriph_Lib_V1.1.0/Libraries/CMSIS/Device/ST/STM32F2xx/Source/Templates/gcc_ride7/startup_stm32f2xx.s.o
WWDG_IRQHandler                                   CMakeFiles/bootloader.dir/__/__/__/__/__/thirdparty/STM32F2xx_StdPeriph_Lib_V1.1.0/Libraries/CMSIS/Device/ST/STM32F2xx/Source/Templates/gcc_ride7/startup_stm32f2xx.s.o
__init_array_end                                  /usr/lib/gcc/arm-none-eabi/9.2.1/../../../arm-none-eabi/lib/thumb/v7-m/nofp/libg_nano.a(lib_a-init.o)
__init_array_start                                /usr/lib/gcc/arm-none-eabi/9.2.1/../../../arm-none-eabi/lib/thumb/v7-m/nofp/libg_nano.a(lib_a-init.o)
__libc_init_array                                 /usr/lib/gcc/arm-none-eabi/9.2.1/../../../arm-none-eabi/lib/thumb/v7-m/nofp/libg_nano.a(lib_a-init.o)
                                                  CMakeFiles/bootloader.dir/__/__/__/__/__/thirdparty/STM32F2xx_StdPeriph_Lib_V1.1.0/Libraries/CMSIS/Device/ST/STM32F2xx/Source/Templates/gcc_ride7/startup_stm32f2xx.s.o
__preinit_array_end                               /usr/lib/gcc/arm-none-eabi/9.2.1/../../../arm-none-eabi/lib/thumb/v7-m/nofp/libg_nano.a(lib_a-init.o)
__preinit_array_start                             /usr/lib/gcc/arm-none-eabi/9.2.1/../../../arm-none-eabi/lib/thumb/v7-m/nofp/libg_nano.a(lib_a-init.o)
_ebss                                             CMakeFiles/bootloader.dir/__/__/__/__/__/thirdparty/STM32F2xx_StdPeriph_Lib_V1.1.0/Libraries/CMSIS/Device/ST/STM32F2xx/Source/Templates/gcc_ride7/startup_stm32f2xx.s.o
_edata                                            CMakeFiles/bootloader.dir/__/__/__/__/__/thirdparty/STM32F2xx_StdPeriph_Lib_V1.1.0/Libraries/CMSIS/Device/ST/STM32F2xx/Source/Templates/gcc_ride7/startup_stm32f2xx.s.o
_estack                                           CMakeFiles/bootloader.dir/__/__/__/__/__/thirdparty/STM32F2xx_StdPeriph_Lib_V1.1.0/Libraries/CMSIS/Device/ST/STM32F2xx/Source/Templates/gcc_ride7/startup_stm32f2xx.s.o
_fini                                             CMakeFiles/bootloader.dir/init.c.o
_init                                             CMakeFiles/bootloader.dir/init.c.o
                                                  /usr/lib/gcc/arm-none-eabi/9.2.1/../../../arm-none-eabi/lib/thumb/v7-m/nofp/libg_nano.a(lib_a-init.o)
_main_stack_start                                 CMakeFiles/bootloader.dir/__/__/__/__/__/thirdparty/STM32F2xx_StdPeriph_Lib_V1.1.0/Libraries/CMSIS/Device/ST/STM32F2xx/Source/Templates/gcc_ride7/startup_stm32f2xx.s.o
_sbss                                             CMakeFiles/bootloader.dir/__/__/__/__/__/thirdparty/STM32F2xx_StdPeriph_Lib_V1.1.0/Libraries/CMSIS/Device/ST/STM32F2xx/Source/Templates/gcc_ride7/startup_stm32f2xx.s.o
_sdata                                            CMakeFiles/bootloader.dir/__/__/__/__/__/thirdparty/STM32F2xx_StdPeriph_Lib_V1.1.0/Libraries/CMSIS/Device/ST/STM32F2xx/Source/Templates/gcc_ride7/startup_stm32f2xx.s.o
_sidata                                           CMakeFiles/bootloader.dir/__/__/__/__/__/thirdparty/STM32F2xx_StdPeriph_Lib_V1.1.0/Libraries/CMSIS/Device/ST/STM32F2xx/Source/Templates/gcc_ride7/startup_stm32f2xx.s.o
adcInit()                                         CMakeFiles/bootloader.dir/__/__/__/__/taranis/board.cpp.o
anaIn(unsigned char)                              CMakeFiles/bootloader.dir/__/__/__/__/taranis/board.cpp.o
audioInit()                                       CMakeFiles/bootloader.dir/__/__/__/__/taranis/board.cpp.o
backlightDisable                                  CMakeFiles/bootloader.dir/__/__/__/__/taranis/backlight_driver.cpp.o
                                                  CMakeFiles/bootloader.dir/__/__/__/__/taranis/board.cpp.o
backlightEnable                                   CMakeFiles/bootloader.dir/__/__/__/__/taranis/backlight_driver.cpp.o
                                                  CMakeFiles/bootloader.dir/boot.cpp.o
backlightInit                                     CMakeFiles/bootloader.dir/__/__/__/__/taranis/backlight_driver.cpp.o
                                                  CMakeFiles/bootloader.dir/boot.cpp.o
                                                  CMakeFiles/bootloader.dir/__/__/__/__/taranis/board.cpp.o
binFiles                                          CMakeFiles/bootloader.dir/bin_files.cpp.o
                                                  CMakeFiles/bootloader.dir/boot.cpp.o
bluetoothInit(unsigned long, bool)                CMakeFiles/bootloader.dir/__/bluetooth_driver.cpp.o
                                                  CMakeFiles/bootloader.dir/boot.cpp.o
                                                  CMakeFiles/bootloader.dir/__/__/__/__/taranis/board.cpp.o
boardInit()                                       CMakeFiles/bootloader.dir/__/__/__/__/taranis/board.cpp.o
boardOff()                                        CMakeFiles/bootloader.dir/__/__/__/__/taranis/board.cpp.o
                                                  CMakeFiles/bootloader.dir/boot.cpp.o
bootloaderDrawFilename(char const*, unsigned char, bool) CMakeFiles/bootloader.dir/__/__/__/__/taranis/bootloader/boot_menu.cpp.o
                                                  CMakeFiles/bootloader.dir/boot.cpp.o
bootloaderDrawScreen(BootloaderState, int, char const*) CMakeFiles/bootloader.dir/__/__/__/__/taranis/bootloader/boot_menu.cpp.o
                                                  CMakeFiles/bootloader.dir/boot.cpp.o
bootloaderInitScreen()                            CMakeFiles/bootloader.dir/__/__/__/__/taranis/bootloader/boot_menu.cpp.o
                                                  CMakeFiles/bootloader.dir/boot.cpp.o
cdev                                              CMakeFiles/bootloader.dir/__/__/__/__/__/thirdparty/STM32_USB-Host-Device_Lib_V2.2.0/Libraries/STM32_USB_Device_Library/Class/msc/src/usbd_msc_scsi.c.o
checkFlashFile(unsigned int, FlashCheckRes)       CMakeFiles/bootloader.dir/boot.cpp.o
closeBinFile()                                    CMakeFiles/bootloader.dir/bin_files.cpp.o
                                                  CMakeFiles/bootloader.dir/boot.cpp.o
delay_01us                                        CMakeFiles/bootloader.dir/__/delays.cpp.o
delay_ms                                          CMakeFiles/bootloader.dir/__/delays.cpp.o
                                                  CMakeFiles/bootloader.dir/__/usb_bsp.c.o
                                                  CMakeFiles/bootloader.dir/__/__/__/__/taranis/lcd_driver_spi.cpp.o
delay_us                                          CMakeFiles/bootloader.dir/__/delays.cpp.o
                                                  CMakeFiles/bootloader.dir/__/usb_bsp.c.o
delaysInit                                        CMakeFiles/bootloader.dir/__/delays.cpp.o
                                                  CMakeFiles/bootloader.dir/boot.cpp.o
                                                  CMakeFiles/bootloader.dir/__/__/__/__/taranis/board.cpp.o
disk_initialize                                   CMakeFiles/bootloader.dir/__/__/__/__/taranis/diskio.cpp.o
                                                  CMakeFiles/bootloader.dir/__/__/__/__/__/thirdparty/FatFs/ff.c.o
disk_ioctl                                        CMakeFiles/bootloader.dir/__/__/__/__/taranis/diskio.cpp.o
                                                  CMakeFiles/bootloader.dir/__/usbd_storage_msd.cpp.o
disk_read                                         CMakeFiles/bootloader.dir/__/__/__/__/taranis/diskio.cpp.o
                                                  CMakeFiles/bootloader.dir/__/usbd_storage_msd.cpp.o
                                                  CMakeFiles/bootloader.dir/__/__/__/__/__/thirdparty/FatFs/ff.c.o
disk_status                                       CMakeFiles/bootloader.dir/__/__/__/__/taranis/diskio.cpp.o
                                                  CMakeFiles/bootloader.dir/__/__/__/__/__/thirdparty/FatFs/ff.c.o
disk_write                                        CMakeFiles/bootloader.dir/__/__/__/__/taranis/diskio.cpp.o
                                                  CMakeFiles/bootloader.dir/__/usbd_storage_msd.cpp.o
displayBuf                                        CMakeFiles/bootloader.dir/__/__/__/__/__/gui/common/stdlcd/lcd_1bit.cpp.o
                                                  CMakeFiles/bootloader.dir/__/__/__/__/taranis/lcd_driver_spi.cpp.o
div                                               /usr/lib/gcc/arm-none-eabi/9.2.1/../../../arm-none-eabi/lib/thumb/v7-m/nofp/libg_nano.a(lib_a-div.o)
                                                  CMakeFiles/bootloader.dir/__/__/__/__/__/strhelpers.cpp.o
eepromAddress                                     CMakeFiles/bootloader.dir/boot.cpp.o
eepromIsTransferComplete()                        CMakeFiles/bootloader.dir/__/__/__/__/taranis/i2c_driver.cpp.o
eepromPageWrite(unsigned char*, unsigned short, unsigned char) CMakeFiles/bootloader.dir/__/__/__/__/taranis/i2c_driver.cpp.o
eepromReadBlock(unsigned char*, unsigned int, unsigned int) CMakeFiles/bootloader.dir/__/__/__/__/taranis/i2c_driver.cpp.o
                                                  CMakeFiles/bootloader.dir/__/usbd_storage_msd.cpp.o
eepromWaitEepromStandbyState()                    CMakeFiles/bootloader.dir/__/__/__/__/taranis/i2c_driver.cpp.o
eepromWriteBlock(unsigned char*, unsigned int, unsigned int) CMakeFiles/bootloader.dir/__/__/__/__/taranis/i2c_driver.cpp.o
                                                  CMakeFiles/bootloader.dir/boot.cpp.o
                                                  CMakeFiles/bootloader.dir/__/usbd_storage_msd.cpp.o
eepromWritten                                     CMakeFiles/bootloader.dir/boot.cpp.o
eraseSector(unsigned long)                        CMakeFiles/bootloader.dir/__/flash_driver.cpp.o
extractFirmwareVersion(VersionTag*)               CMakeFiles/bootloader.dir/bin_files.cpp.o
f_chdir                                           CMakeFiles/bootloader.dir/__/__/__/__/__/thirdparty/FatFs/ff.c.o
                                                  CMakeFiles/bootloader.dir/bin_files.cpp.o
                                                  CMakeFiles/bootloader.dir/__/__/__/__/taranis/diskio.cpp.o
f_close                                           CMakeFiles/bootloader.dir/__/__/__/__/__/thirdparty/FatFs/ff.c.o
                                                  CMakeFiles/bootloader.dir/bin_files.cpp.o
f_closedir                                        CMakeFiles/bootloader.dir/__/__/__/__/__/thirdparty/FatFs/ff.c.o
f_getcwd                                          CMakeFiles/bootloader.dir/__/__/__/__/__/thirdparty/FatFs/ff.c.o
f_lseek                                           CMakeFiles/bootloader.dir/__/__/__/__/__/thirdparty/FatFs/ff.c.o
                                                  CMakeFiles/bootloader.dir/bin_files.cpp.o
f_mount                                           CMakeFiles/bootloader.dir/__/__/__/__/__/thirdparty/FatFs/ff.c.o
                                                  CMakeFiles/bootloader.dir/__/__/__/__/taranis/diskio.cpp.o
f_open                                            CMakeFiles/bootloader.dir/__/__/__/__/__/thirdparty/FatFs/ff.c.o
                                                  CMakeFiles/bootloader.dir/bin_files.cpp.o
f_opendir                                         CMakeFiles/bootloader.dir/__/__/__/__/__/thirdparty/FatFs/ff.c.o
                                                  CMakeFiles/bootloader.dir/bin_files.cpp.o
f_read                                            CMakeFiles/bootloader.dir/__/__/__/__/__/thirdparty/FatFs/ff.c.o
                                                  CMakeFiles/bootloader.dir/bin_files.cpp.o
f_readdir                                         CMakeFiles/bootloader.dir/__/__/__/__/__/thirdparty/FatFs/ff.c.o
                                                  CMakeFiles/bootloader.dir/bin_files.cpp.o
fat12Read                                         CMakeFiles/bootloader.dir/__/usbd_storage_msd.cpp.o
fat12Write                                        CMakeFiles/bootloader.dir/__/usbd_storage_msd.cpp.o
fetchBinFiles(unsigned int)                       CMakeFiles/bootloader.dir/bin_files.cpp.o
                                                  CMakeFiles/bootloader.dir/boot.cpp.o
ff_convert                                        CMakeFiles/bootloader.dir/__/__/__/__/__/thirdparty/FatFs/option/ccsbcs.c.o
                                                  CMakeFiles/bootloader.dir/__/__/__/__/__/thirdparty/FatFs/ff.c.o
ff_wtoupper                                       CMakeFiles/bootloader.dir/__/__/__/__/__/thirdparty/FatFs/option/ccsbcs.c.o
                                                  CMakeFiles/bootloader.dir/__/__/__/__/__/thirdparty/FatFs/ff.c.o
firmwareAddress                                   CMakeFiles/bootloader.dir/boot.cpp.o
firmwareSize                                      CMakeFiles/bootloader.dir/boot.cpp.o
firmwareWritten                                   CMakeFiles/bootloader.dir/boot.cpp.o
flashWrite(unsigned long*, unsigned long const*)  CMakeFiles/bootloader.dir/__/flash_driver.cpp.o
                                                  CMakeFiles/bootloader.dir/boot.cpp.o
                                                  CMakeFiles/bootloader.dir/__/usbd_storage_msd.cpp.o
flashWriteBlock()                                 CMakeFiles/bootloader.dir/boot.cpp.o
font_5x7                                          CMakeFiles/bootloader.dir/__/__/__/__/__/gui/128x64/fonts.cpp.o
                                                  CMakeFiles/bootloader.dir/__/__/__/__/__/gui/common/stdlcd/lcd_1bit.cpp.o
g_FATFS_Obj                                       CMakeFiles/bootloader.dir/__/__/__/__/taranis/diskio.cpp.o
g_eeGeneral                                       CMakeFiles/bootloader.dir/__/__/__/__/taranis/board.cpp.o
                                                  CMakeFiles/bootloader.dir/__/__/__/__/taranis/keys_driver.cpp.o
g_pfnVectors                                      CMakeFiles/bootloader.dir/__/__/__/__/__/thirdparty/STM32F2xx_StdPeriph_Lib_V1.1.0/Libraries/CMSIS/Device/ST/STM32F2xx/Source/Templates/gcc_ride7/startup_stm32f2xx.s.o
                                                  CMakeFiles/bootloader.dir/__/f2/system_stm32f2xx.c.o
getBatteryVoltage()                               CMakeFiles/bootloader.dir/__/__/__/__/taranis/board.cpp.o
getCharPattern(PatternData*, unsigned char, unsigned long) CMakeFiles/bootloader.dir/__/__/__/__/__/gui/common/stdlcd/lcd_1bit.cpp.o
getCharWidth(char, unsigned long)                 CMakeFiles/bootloader.dir/__/__/__/__/__/gui/common/stdlcd/lcd_1bit.cpp.o
getEvent(bool)                                    CMakeFiles/bootloader.dir/__/__/__/__/__/keys.cpp.o
                                                  CMakeFiles/bootloader.dir/boot.cpp.o
getFirmwareVersion(char const*)                   CMakeFiles/bootloader.dir/__/__/__/__/__/stamp.cpp.o
                                                  CMakeFiles/bootloader.dir/bin_files.cpp.o
                                                  CMakeFiles/bootloader.dir/__/usbd_storage_msd.cpp.o
                                                  CMakeFiles/bootloader.dir/__/__/__/__/taranis/bootloader/boot_menu.cpp.o
getPatternWidth(PatternData const*)               CMakeFiles/bootloader.dir/__/__/__/__/__/gui/common/stdlcd/lcd_1bit.cpp.o
getSelectedUsbMode                                CMakeFiles/bootloader.dir/__/usb_driver.cpp.o
                                                  CMakeFiles/bootloader.dir/__/usbd_desc.c.o
getTextWidth(char const*, unsigned char, unsigned long) CMakeFiles/bootloader.dir/__/__/__/__/__/gui/common/stdlcd/lcd_1bit.cpp.o
gettime                                           CMakeFiles/bootloader.dir/__/__/__/__/__/strhelpers.cpp.o
hapticInit()                                      CMakeFiles/bootloader.dir/__/__/__/__/taranis/board.cpp.o
hardwareOptions                                   CMakeFiles/bootloader.dir/__/__/__/__/taranis/board.cpp.o
                                                  CMakeFiles/bootloader.dir/__/pwr_driver.cpp.o
i2cInit()                                         CMakeFiles/bootloader.dir/__/__/__/__/taranis/i2c_driver.cpp.o
                                                  CMakeFiles/bootloader.dir/boot.cpp.o
                                                  CMakeFiles/bootloader.dir/__/__/__/__/taranis/board.cpp.o
inactivity                                        CMakeFiles/bootloader.dir/__/__/__/__/__/keys.cpp.o
init10msTimer()                                   CMakeFiles/bootloader.dir/boot.cpp.o
init2MhzTimer()                                   CMakeFiles/bootloader.dir/__/__/__/__/taranis/board.cpp.o
init5msTimer()                                    CMakeFiles/bootloader.dir/__/__/__/__/taranis/board.cpp.o
interrupt10ms()                                   CMakeFiles/bootloader.dir/boot.cpp.o
isBacklightEnabled                                CMakeFiles/bootloader.dir/__/__/__/__/taranis/backlight_driver.cpp.o
isBootloaderStart(unsigned char const*)           CMakeFiles/bootloader.dir/__/flash_driver.cpp.o
isFirmwareStart(unsigned char const*)             CMakeFiles/bootloader.dir/__/flash_driver.cpp.o
                                                  CMakeFiles/bootloader.dir/boot.cpp.o
                                                  CMakeFiles/bootloader.dir/__/usbd_storage_msd.cpp.o
isValidBufferStart(unsigned char const*)          CMakeFiles/bootloader.dir/boot.cpp.o
keyDown()                                         CMakeFiles/bootloader.dir/__/__/__/__/taranis/keys_driver.cpp.o
                                                  CMakeFiles/bootloader.dir/__/__/__/__/__/keys.cpp.o
keys                                              CMakeFiles/bootloader.dir/__/__/__/__/__/keys.cpp.o
                                                  CMakeFiles/bootloader.dir/boot.cpp.o
                                                  CMakeFiles/bootloader.dir/__/__/__/__/taranis/keys_driver.cpp.o
keysInit()                                        CMakeFiles/bootloader.dir/__/__/__/__/taranis/keys_driver.cpp.o
                                                  CMakeFiles/bootloader.dir/boot.cpp.o
                                                  CMakeFiles/bootloader.dir/__/__/__/__/taranis/board.cpp.o
killAllEvents()                                   CMakeFiles/bootloader.dir/__/__/__/__/__/keys.cpp.o
killEvents(unsigned short)                        CMakeFiles/bootloader.dir/__/__/__/__/__/keys.cpp.o
lcdClear()                                        CMakeFiles/bootloader.dir/__/__/__/__/__/gui/common/stdlcd/lcd_1bit.cpp.o
                                                  CMakeFiles/bootloader.dir/boot.cpp.o
                                                  CMakeFiles/bootloader.dir/__/__/__/__/taranis/bootloader/boot_menu.cpp.o
lcdDrawCenteredText(int, char const*, unsigned long) CMakeFiles/bootloader.dir/__/__/__/__/__/gui/common/stdlcd/lcd_1bit.cpp.o
lcdDrawChar(int, int, unsigned char)              CMakeFiles/bootloader.dir/__/__/__/__/__/gui/common/stdlcd/lcd_1bit.cpp.o
lcdDrawChar(int, int, unsigned char, unsigned long) CMakeFiles/bootloader.dir/__/__/__/__/__/gui/common/stdlcd/lcd_1bit.cpp.o
lcdDrawHorizontalLine(int, int, int, unsigned char, unsigned long) CMakeFiles/bootloader.dir/__/__/__/__/__/gui/common/stdlcd/lcd_1bit.cpp.o
lcdDrawPoint(int, int, unsigned long)             CMakeFiles/bootloader.dir/__/__/__/__/__/gui/common/stdlcd/lcd_1bit.cpp.o
lcdDrawRect(int, int, int, int, unsigned char, unsigned long) CMakeFiles/bootloader.dir/__/__/__/__/__/gui/common/stdlcd/lcd_1bit.cpp.o
                                                  CMakeFiles/bootloader.dir/__/__/__/__/taranis/bootloader/boot_menu.cpp.o
lcdDrawSizedText(int, int, char const*, unsigned char) CMakeFiles/bootloader.dir/__/__/__/__/__/gui/common/stdlcd/lcd_1bit.cpp.o
lcdDrawSizedText(int, int, char const*, unsigned char, unsigned long) CMakeFiles/bootloader.dir/__/__/__/__/__/gui/common/stdlcd/lcd_1bit.cpp.o
                                                  CMakeFiles/bootloader.dir/__/__/__/__/taranis/bootloader/boot_menu.cpp.o
lcdDrawSolidHorizontalLine(int, int, int, unsigned long) CMakeFiles/bootloader.dir/__/__/__/__/__/gui/common/stdlcd/lcd_1bit.cpp.o
                                                  CMakeFiles/bootloader.dir/__/__/__/__/taranis/bootloader/boot_menu.cpp.o
lcdDrawSolidVerticalLine(int, int, int, unsigned long) CMakeFiles/bootloader.dir/__/__/__/__/__/gui/common/stdlcd/lcd_1bit.cpp.o
lcdDrawText(int, int, char const*)                CMakeFiles/bootloader.dir/__/__/__/__/__/gui/common/stdlcd/lcd_1bit.cpp.o
lcdDrawText(int, int, char const*, unsigned long) CMakeFiles/bootloader.dir/__/__/__/__/__/gui/common/stdlcd/lcd_1bit.cpp.o
                                                  CMakeFiles/bootloader.dir/__/__/__/__/taranis/bootloader/boot_menu.cpp.o
lcdDrawTextAlignedLeft(int, char const*)          CMakeFiles/bootloader.dir/__/__/__/__/__/gui/common/stdlcd/lcd_1bit.cpp.o
                                                  CMakeFiles/bootloader.dir/__/__/__/__/taranis/bootloader/boot_menu.cpp.o
lcdDrawVerticalLine(int, int, int, unsigned char, unsigned long) CMakeFiles/bootloader.dir/__/__/__/__/__/gui/common/stdlcd/lcd_1bit.cpp.o
lcdHardwareInit()                                 CMakeFiles/bootloader.dir/__/__/__/__/taranis/lcd_driver_spi.cpp.o
lcdInit()                                         CMakeFiles/bootloader.dir/__/__/__/__/taranis/lcd_driver_spi.cpp.o
                                                  CMakeFiles/bootloader.dir/boot.cpp.o
                                                  CMakeFiles/bootloader.dir/__/__/__/__/taranis/board.cpp.o
lcdInitFinish()                                   CMakeFiles/bootloader.dir/__/__/__/__/taranis/lcd_driver_spi.cpp.o
lcdInitFinished                                   CMakeFiles/bootloader.dir/__/__/__/__/taranis/lcd_driver_spi.cpp.o
lcdInvertLine(signed char)                        CMakeFiles/bootloader.dir/__/__/__/__/__/gui/common/stdlcd/lcd_1bit.cpp.o
                                                  CMakeFiles/bootloader.dir/__/__/__/__/taranis/bootloader/boot_menu.cpp.o
lcdLastLeftPos                                    CMakeFiles/bootloader.dir/__/__/__/__/__/gui/common/stdlcd/lcd_1bit.cpp.o
lcdLastRightPos                                   CMakeFiles/bootloader.dir/__/__/__/__/__/gui/common/stdlcd/lcd_1bit.cpp.o
lcdMaskPoint(unsigned char*, unsigned char, unsigned long) CMakeFiles/bootloader.dir/__/__/__/__/__/gui/common/stdlcd/lcd_1bit.cpp.o
lcdNextPos                                        CMakeFiles/bootloader.dir/__/__/__/__/__/gui/common/stdlcd/lcd_1bit.cpp.o
lcdOff()                                          CMakeFiles/bootloader.dir/__/__/__/__/taranis/lcd_driver_spi.cpp.o
                                                  CMakeFiles/bootloader.dir/__/__/__/__/taranis/board.cpp.o
lcdPutPattern(int, int, unsigned char const*, unsigned char, unsigned char, unsigned long) CMakeFiles/bootloader.dir/__/__/__/__/__/gui/common/stdlcd/lcd_1bit.cpp.o
lcdRefresh(bool)                                  CMakeFiles/bootloader.dir/__/__/__/__/taranis/lcd_driver_spi.cpp.o
                                                  CMakeFiles/bootloader.dir/boot.cpp.o
lcdRefreshWait()                                  CMakeFiles/bootloader.dir/__/__/__/__/taranis/lcd_driver_spi.cpp.o
                                                  CMakeFiles/bootloader.dir/boot.cpp.o
lcdReset()                                        CMakeFiles/bootloader.dir/__/__/__/__/taranis/lcd_driver_spi.cpp.o
lcdSetRefVolt(unsigned char)                      CMakeFiles/bootloader.dir/__/__/__/__/taranis/lcd_driver_spi.cpp.o
lcdStart()                                        CMakeFiles/bootloader.dir/__/__/__/__/taranis/lcd_driver_spi.cpp.o
lcdWriteCommand(unsigned char)                    CMakeFiles/bootloader.dir/__/__/__/__/taranis/lcd_driver_spi.cpp.o
lcd_busy                                          CMakeFiles/bootloader.dir/__/__/__/__/taranis/lcd_driver_spi.cpp.o
ledGreen()                                        CMakeFiles/bootloader.dir/__/__/__/__/taranis/board.cpp.o
ledInit()                                         CMakeFiles/bootloader.dir/__/__/__/__/taranis/board.cpp.o
lockFlash()                                       CMakeFiles/bootloader.dir/__/flash_driver.cpp.o
                                                  CMakeFiles/bootloader.dir/boot.cpp.o
lunReady                                          CMakeFiles/bootloader.dir/__/usbd_storage_msd.cpp.o
                                                  CMakeFiles/bootloader.dir/__/__/__/__/__/thirdparty/STM32_USB-Host-Device_Lib_V2.2.0/Libraries/STM32_USB_Device_Library/Class/msc/src/usbd_msc_scsi.c.o
main                                              CMakeFiles/bootloader.dir/boot.cpp.o
                                                  CMakeFiles/bootloader.dir/__/__/__/__/__/thirdparty/STM32F2xx_StdPeriph_Lib_V1.1.0/Libraries/CMSIS/Device/ST/STM32F2xx/Source/Templates/gcc_ride7/startup_stm32f2xx.s.o
memcmp                                            /usr/lib/gcc/arm-none-eabi/9.2.1/../../../arm-none-eabi/lib/thumb/v7-m/nofp/libg_nano.a(lib_a-memcmp.o)
                                                  CMakeFiles/bootloader.dir/__/__/__/__/__/stamp.cpp.o
memcpy                                            /usr/lib/gcc/arm-none-eabi/9.2.1/../../../arm-none-eabi/lib/thumb/v7-m/nofp/libg_nano.a(lib_a-memcpy.o)
                                                  CMakeFiles/bootloader.dir/__/usbd_storage_msd.cpp.o
memoryType                                        CMakeFiles/bootloader.dir/boot.cpp.o
                                                  CMakeFiles/bootloader.dir/__/__/__/__/taranis/bootloader/boot_menu.cpp.o
memset                                            /usr/lib/gcc/arm-none-eabi/9.2.1/../../../arm-none-eabi/lib/thumb/v7-m/nofp/libg_nano.a(lib_a-memset.o)
                                                  CMakeFiles/bootloader.dir/__/__/__/__/__/gui/common/stdlcd/lcd_1bit.cpp.o
                                                  CMakeFiles/bootloader.dir/__/usbd_storage_msd.cpp.o
                                                  CMakeFiles/bootloader.dir/__/__/__/__/__/strhelpers.cpp.o
                                                  CMakeFiles/bootloader.dir/__/__/__/__/__/keys.cpp.o
menuFlashFile(unsigned long, unsigned short)      CMakeFiles/bootloader.dir/boot.cpp.o
openBinDir(MemoryType)                            CMakeFiles/bootloader.dir/bin_files.cpp.o
                                                  CMakeFiles/bootloader.dir/boot.cpp.o
openBinFile(MemoryType, unsigned int)             CMakeFiles/bootloader.dir/bin_files.cpp.o
                                                  CMakeFiles/bootloader.dir/boot.cpp.o
pauseEvents(unsigned short)                       CMakeFiles/bootloader.dir/__/__/__/__/__/keys.cpp.o
pwrInit                                           CMakeFiles/bootloader.dir/__/pwr_driver.cpp.o
                                                  CMakeFiles/bootloader.dir/boot.cpp.o
                                                  CMakeFiles/bootloader.dir/__/__/__/__/taranis/board.cpp.o
pwrOff                                            CMakeFiles/bootloader.dir/__/pwr_driver.cpp.o
                                                  CMakeFiles/bootloader.dir/__/__/__/__/taranis/board.cpp.o
pwrOn                                             CMakeFiles/bootloader.dir/__/pwr_driver.cpp.o
                                                  CMakeFiles/bootloader.dir/boot.cpp.o
                                                  CMakeFiles/bootloader.dir/__/__/__/__/taranis/board.cpp.o
pwrPressed                                        CMakeFiles/bootloader.dir/__/pwr_driver.cpp.o
                                                  CMakeFiles/bootloader.dir/boot.cpp.o
                                                  CMakeFiles/bootloader.dir/__/__/__/__/taranis/board.cpp.o
                                                  CMakeFiles/bootloader.dir/__/__/__/__/taranis/keys_driver.cpp.o
pwrResetHandler                                   CMakeFiles/bootloader.dir/__/pwr_driver.cpp.o
                                                  CMakeFiles/bootloader.dir/__/__/__/__/__/thirdparty/STM32F2xx_StdPeriph_Lib_V1.1.0/Libraries/CMSIS/Device/ST/STM32F2xx/Source/Templates/gcc_ride7/startup_stm32f2xx.s.o
readBinFile()                                     CMakeFiles/bootloader.dir/bin_files.cpp.o
                                                  CMakeFiles/bootloader.dir/boot.cpp.o
readKeys()                                        CMakeFiles/bootloader.dir/__/__/__/__/taranis/keys_driver.cpp.o
                                                  CMakeFiles/bootloader.dir/__/rotary_encoder_driver.cpp.o
                                                  CMakeFiles/bootloader.dir/boot.cpp.o
readKeysAndTrims()                                CMakeFiles/bootloader.dir/__/__/__/__/taranis/keys_driver.cpp.o
readTrims()                                       CMakeFiles/bootloader.dir/__/__/__/__/taranis/keys_driver.cpp.o
                                                  CMakeFiles/bootloader.dir/boot.cpp.o
resetBacklightTimeout()                           CMakeFiles/bootloader.dir/__/__/__/__/taranis/keys_driver.cpp.o
rotaryEncoderCheck()                              CMakeFiles/bootloader.dir/__/rotary_encoder_driver.cpp.o
rotaryEncoderInit()                               CMakeFiles/bootloader.dir/__/rotary_encoder_driver.cpp.o
                                                  CMakeFiles/bootloader.dir/boot.cpp.o
                                                  CMakeFiles/bootloader.dir/__/__/__/__/taranis/board.cpp.o
rotaryEncoderStartDelay()                         CMakeFiles/bootloader.dir/__/rotary_encoder_driver.cpp.o
rotencPosition                                    CMakeFiles/bootloader.dir/__/rotary_encoder_driver.cpp.o
rotencValue                                       CMakeFiles/bootloader.dir/boot.cpp.o
                                                  CMakeFiles/bootloader.dir/__/rotary_encoder_driver.cpp.o
rtcInit()                                         CMakeFiles/bootloader.dir/__/__/__/__/taranis/board.cpp.o
s_evt                                             CMakeFiles/bootloader.dir/__/__/__/__/__/keys.cpp.o
                                                  CMakeFiles/bootloader.dir/boot.cpp.o
sdGetSpeed()                                      CMakeFiles/bootloader.dir/__/__/__/__/taranis/diskio.cpp.o
sdInit()                                          CMakeFiles/bootloader.dir/__/__/__/__/taranis/diskio.cpp.o
                                                  CMakeFiles/bootloader.dir/boot.cpp.o
sdIsHC()                                          CMakeFiles/bootloader.dir/__/__/__/__/taranis/diskio.cpp.o
sdMounted()                                       CMakeFiles/bootloader.dir/__/__/__/__/taranis/diskio.cpp.o
sdPoll10ms()                                      CMakeFiles/bootloader.dir/__/__/__/__/taranis/diskio.cpp.o
                                                  CMakeFiles/bootloader.dir/boot.cpp.o
selectedUsbMode                                   CMakeFiles/bootloader.dir/__/usb_driver.cpp.o
setSelectedUsbMode                                CMakeFiles/bootloader.dir/__/usb_driver.cpp.o
sportUpdateInit()                                 CMakeFiles/bootloader.dir/__/__/__/__/taranis/board.cpp.o
sportUpdatePowerInit()                            CMakeFiles/bootloader.dir/__/__/__/__/taranis/board.cpp.o
sportUpdatePowerOff()                             CMakeFiles/bootloader.dir/__/__/__/__/taranis/board.cpp.o
sportUpdatePowerOn()                              CMakeFiles/bootloader.dir/__/__/__/__/taranis/board.cpp.o
strAppend(char*, char const*, int)                CMakeFiles/bootloader.dir/__/__/__/__/__/strhelpers.cpp.o
                                                  CMakeFiles/bootloader.dir/bin_files.cpp.o
strAppendDate(char*, bool)                        CMakeFiles/bootloader.dir/__/__/__/__/__/strhelpers.cpp.o
strAppendFilename(char*, char const*, int)        CMakeFiles/bootloader.dir/__/__/__/__/__/strhelpers.cpp.o
strAppendSigned(char*, long, unsigned char, unsigned char) CMakeFiles/bootloader.dir/__/__/__/__/__/strhelpers.cpp.o
strAppendUnsigned(char*, unsigned long, unsigned char, unsigned char) CMakeFiles/bootloader.dir/__/__/__/__/__/strhelpers.cpp.o
strSetCursor(char*, int)                          CMakeFiles/bootloader.dir/__/__/__/__/__/strhelpers.cpp.o
strcpy                                            /usr/lib/gcc/arm-none-eabi/9.2.1/../../../arm-none-eabi/lib/thumb/v7-m/nofp/libg_nano.a(lib_a-strcpy.o)
                                                  CMakeFiles/bootloader.dir/__/usbd_storage_msd.cpp.o
strlen                                            /usr/lib/gcc/arm-none-eabi/9.2.1/../../../arm-none-eabi/lib/thumb/v7-m/nofp/libg_nano.a(lib_a-strlen-stub.o)
                                                  CMakeFiles/bootloader.dir/bin_files.cpp.o
                                                  CMakeFiles/bootloader.dir/__/usbd_storage_msd.cpp.o
strncmp                                           /usr/lib/gcc/arm-none-eabi/9.2.1/../../../arm-none-eabi/lib/thumb/v7-m/nofp/libg_nano.a(lib_a-strncmp.o)
                                                  CMakeFiles/bootloader.dir/__/__/__/__/taranis/bootloader/boot_menu.cpp.o
tenms                                             CMakeFiles/bootloader.dir/boot.cpp.o
trimDown(unsigned char)                           CMakeFiles/bootloader.dir/__/__/__/__/taranis/keys_driver.cpp.o
unlockFlash()                                     CMakeFiles/bootloader.dir/__/flash_driver.cpp.o
                                                  CMakeFiles/bootloader.dir/boot.cpp.o
unlocked                                          CMakeFiles/bootloader.dir/boot.cpp.o
usbInit                                           CMakeFiles/bootloader.dir/__/usb_driver.cpp.o
                                                  CMakeFiles/bootloader.dir/boot.cpp.o
                                                  CMakeFiles/bootloader.dir/__/__/__/__/taranis/board.cpp.o
usbPlugged                                        CMakeFiles/bootloader.dir/__/usb_driver.cpp.o
                                                  CMakeFiles/bootloader.dir/boot.cpp.o
usbPluggedIn()                                    CMakeFiles/bootloader.dir/__/usbd_storage_msd.cpp.o
                                                  CMakeFiles/bootloader.dir/boot.cpp.o
usbStart                                          CMakeFiles/bootloader.dir/__/usb_driver.cpp.o
                                                  CMakeFiles/bootloader.dir/boot.cpp.o
usbStarted                                        CMakeFiles/bootloader.dir/__/usb_driver.cpp.o
usbStop                                           CMakeFiles/bootloader.dir/__/usb_driver.cpp.o
                                                  CMakeFiles/bootloader.dir/boot.cpp.o
valid                                             CMakeFiles/bootloader.dir/boot.cpp.o
vers_stamp                                        CMakeFiles/bootloader.dir/__/__/__/__/__/stamp.cpp.o
waitFlashIdle()                                   CMakeFiles/bootloader.dir/__/flash_driver.cpp.o
waitKeysReleased()                                CMakeFiles/bootloader.dir/__/__/__/__/__/keys.cpp.o
watchdogInit(unsigned int)                        CMakeFiles/bootloader.dir/__/__/__/__/taranis/board.cpp.o
writeEepromBlock()                                CMakeFiles/bootloader.dir/boot.cpp.o
