ARM GAS  /tmp/ccPUldNi.s 			page 1


   1              		.cpu cortex-m3
   2              		.eabi_attribute 20, 1	@ Tag_ABI_FP_denormal
   3              		.eabi_attribute 21, 1	@ Tag_ABI_FP_exceptions
   4              		.eabi_attribute 23, 3	@ Tag_ABI_FP_number_model
   5              		.eabi_attribute 24, 1	@ Tag_ABI_align8_needed
   6              		.eabi_attribute 25, 1	@ Tag_ABI_align8_preserved
   7              		.eabi_attribute 26, 1	@ Tag_ABI_enum_size
   8              		.eabi_attribute 30, 4	@ Tag_ABI_optimization_goals
   9              		.eabi_attribute 34, 1	@ Tag_CPU_unaligned_access
  10              		.eabi_attribute 18, 4	@ Tag_ABI_PCS_wchar_t
  11              		.file	"bluetooth_driver.cpp"
  12              	@ GNU C++11 (15:9-2019-q4-0ubuntu1) version 9.2.1 20191025 (release) [ARM/arm-9-branch revision 277
  13              	@	compiled by GNU C version 9.2.1 20200306, GMP version 6.2.0, MPFR version 4.0.2, MPC version 1.1.
  14              	
  15              	@ GGC heuristics: --param ggc-min-expand=100 --param ggc-min-heapsize=131072
  16              	@ options passed: 
  17              	@ -I /home/ros/Downloads/opentx/radio/src/thirdparty/STM32F2xx_StdPeriph_Lib_V1.1.0/Libraries/STM32
  18              	@ -I /home/ros/Downloads/opentx/radio/src/thirdparty/STM32F2xx_StdPeriph_Lib_V1.1.0/Libraries/CMSIS
  19              	@ -I /home/ros/Downloads/opentx/radio/src/thirdparty/STM32F2xx_StdPeriph_Lib_V1.1.0/Libraries/CMSIS
  20              	@ -I /home/ros/Downloads/opentx/radio/src/targets/common/arm/stm32
  21              	@ -I /home/ros/Downloads/opentx/radio/src/thirdparty/STM32_USB-Host-Device_Lib_V2.2.0/Libraries/STM
  22              	@ -I /home/ros/Downloads/opentx/radio/src/thirdparty/STM32_USB-Host-Device_Lib_V2.2.0/Libraries/STM
  23              	@ -I /home/ros/Downloads/opentx/radio/src/thirdparty/STM32_USB-Host-Device_Lib_V2.2.0/Libraries/STM
  24              	@ -I /home/ros/Downloads/opentx/radio/src/thirdparty/STM32_USB-Host-Device_Lib_V2.2.0/Libraries/STM
  25              	@ -I /home/ros/Downloads/opentx/radio/src/thirdparty/STM32_USB-Host-Device_Lib_V2.2.0/Libraries/STM
  26              	@ -I /home/ros/Downloads/opentx/radio/src/thirdparty/CoOS
  27              	@ -I /home/ros/Downloads/opentx/radio/src/thirdparty/CoOS/kernel
  28              	@ -I /home/ros/Downloads/opentx/radio/src/thirdparty/CoOS/portable
  29              	@ -I /home/ros/Downloads/opentx/radio/src/targets/taranis
  30              	@ -I /home/ros/Downloads/opentx/radio/src/thirdparty
  31              	@ -I /home/ros/Downloads/opentx/radio/src
  32              	@ -I /home/ros/Downloads/opentx/build-taranis-debug/radio/src
  33              	@ -I /home/ros/Downloads/opentx/build-taranis-debug/radio/src/bitmaps/128x64
  34              	@ -I /home/ros/Downloads/opentx/radio/src/gui
  35              	@ -I /home/ros/Downloads/opentx/radio/src/gui/128x64
  36              	@ -I /home/ros/Downloads/opentx/radio/src/thirdparty/Lua/src
  37              	@ -I /home/ros/Downloads/opentx/radio/src/thirdparty/FatFs
  38              	@ -I /home/ros/Downloads/opentx/radio/src/thirdparty/FatFs/option
  39              	@ -imultilib thumb/v7-m/nofp -D__USES_INITFINI__ -D AUDIO -D AUTOSOURCE
  40              	@ -D AUTOSWITCH -D BATTGRAPH -D BLUETOOTH -D BLUETOOTH_PROBE -D BOLD_FONT
  41              	@ -D BOOT -D CORRECT_NEGATIVE_SHIFTS -D CPUARM -D CROSSFIRE -D CURVES
  42              	@ -D DBLKEYS -D DEFAULT_TEMPLATE_SETUP=0 -D DSM2 -D EEPROM
  43              	@ -D EEPROM_CONVERSIONS=218 -D EEPROM_RLC -D EEPROM_VARIANT=0x4000
  44              	@ -D FLAVOUR="x7" -D FLIGHT_MODES -D FONT= -D GHOST -D GPS -D GRAPHICS
  45              	@ -D GUI -D GVARS -D HAPTIC -D HARDWARE_EXTERNAL_MODULE
  46              	@ -D HARDWARE_EXTERNAL_MODULE_SIZE_STD -D HARDWARE_INTERNAL_MODULE
  47              	@ -D HARDWARE_TRIMS -D HELI -D INTERNAL_MODULE_PXX1 -D LUA_COMPILER
  48              	@ -D LUA_INPUTS -D LUA_MODEL_SCRIPTS -D MANUFACTURER_FRSKY
  49              	@ -D MODULE_PROTOCOL_D8 -D MODULE_PROTOCOL_FCC -D MODULE_PROTOCOL_LBT
  50              	@ -D MULTIMODULE -D NAVIGATION_X7 -D OVERRIDE_CHANNEL_FUNCTION
  51              	@ -D PCBTARANIS -D PCBX7 -D POPUP_LEVEL=2 -D PPM -D PPM_CENTER_ADJUSTABLE
  52              	@ -D PPM_LIMITS_SYMETRICAL -D PPM_UNIT_PERCENT_PREC1 -D PWR_BUTTON_PRESS
  53              	@ -D PXX -D PXX1 -D RADIO_X7 -D REQUIRED_SDCARD_VERSION="2.3V0039"
  54              	@ -D RTCLOCK -D SBUS -D SBUS_TRAINER -D SDCARD -D SIMU_AUDIO
  55              	@ -D SOFTWARE_VOLUME -D SPLASH -D STM32 -D STM32F2 -D THRTRACE -D TIMERS=3
  56              	@ -D TRACE_SIMPGMSPACE -D TRANSLATIONS="EN" -D TRANSLATIONS_EN
  57              	@ -D USE_BIN_ALLOCATOR -D VARIO -D VOICE -D XJT -D HSE_VALUE=12000000
ARM GAS  /tmp/ccPUldNi.s 			page 2


  58              	@ /home/ros/Downloads/opentx/radio/src/targets/common/arm/stm32/bluetooth_driver.cpp
  59              	@ -mcpu=cortex-m3 -mthumb -mfloat-abi=soft -march=armv7-m
  60              	@ -auxbase-strip CMakeFiles/bootloader.dir/__/bluetooth_driver.cpp.o
  61              	@ -gdwarf-2 -g -Os -Wall -Wno-address-of-packed-member -Wno-strict-aliasing
  62              	@ -Wformat=1 -Wreturn-type -Wunused -Wuninitialized -Wunknown-pragmas
  63              	@ -Wno-switch -Wtype-limits -std=gnu++11 -fomit-frame-pointer -fverbose-asm
  64              	@ -fno-exceptions -fdata-sections -ffunction-sections
  65              	@ options enabled:  -faggressive-loop-optimizations -fassume-phsa
  66              	@ -fauto-inc-dec -fbranch-count-reg -fcaller-saves -fcode-hoisting
  67              	@ -fcombine-stack-adjustments -fcommon -fcompare-elim -fcprop-registers
  68              	@ -fcrossjumping -fcse-follow-jumps -fdata-sections -fdefer-pop
  69              	@ -fdelete-null-pointer-checks -fdevirtualize -fdevirtualize-speculatively
  70              	@ -fdwarf2-cfi-asm -fearly-inlining -feliminate-unused-debug-types
  71              	@ -fexpensive-optimizations -fforward-propagate -ffp-int-builtin-inexact
  72              	@ -ffunction-cse -ffunction-sections -fgcse -fgcse-lm -fgnu-runtime
  73              	@ -fgnu-unique -fguess-branch-probability -fhoist-adjacent-loads -fident
  74              	@ -fif-conversion -fif-conversion2 -findirect-inlining -finline
  75              	@ -finline-atomics -finline-functions -finline-functions-called-once
  76              	@ -finline-small-functions -fipa-bit-cp -fipa-cp -fipa-icf
  77              	@ -fipa-icf-functions -fipa-icf-variables -fipa-profile -fipa-pure-const
  78              	@ -fipa-ra -fipa-reference -fipa-reference-addressable -fipa-sra
  79              	@ -fipa-stack-alignment -fipa-vrp -fira-hoist-pressure
  80              	@ -fira-share-save-slots -fira-share-spill-slots
  81              	@ -fisolate-erroneous-paths-dereference -fivopts -fkeep-static-consts
  82              	@ -fleading-underscore -flifetime-dse -flra-remat -flto-odr-type-merging
  83              	@ -fmath-errno -fmerge-constants -fmerge-debug-strings
  84              	@ -fmove-loop-invariants -fomit-frame-pointer -foptimize-sibling-calls
  85              	@ -fpartial-inlining -fpeephole -fpeephole2 -fplt -fprefetch-loop-arrays
  86              	@ -freg-struct-return -freorder-blocks -freorder-functions
  87              	@ -frerun-cse-after-loop -fsched-critical-path-heuristic
  88              	@ -fsched-dep-count-heuristic -fsched-group-heuristic -fsched-interblock
  89              	@ -fsched-last-insn-heuristic -fsched-pressure -fsched-rank-heuristic
  90              	@ -fsched-spec -fsched-spec-insn-heuristic -fsched-stalled-insns-dep
  91              	@ -fschedule-insns2 -fsection-anchors -fsemantic-interposition
  92              	@ -fshow-column -fshrink-wrap-separate -fsigned-zeros
  93              	@ -fsplit-ivs-in-unroller -fsplit-wide-types -fssa-backprop -fssa-phiopt
  94              	@ -fstdarg-opt -fstore-merging -fstrict-aliasing
  95              	@ -fstrict-volatile-bitfields -fsync-libcalls -fthread-jumps
  96              	@ -ftoplevel-reorder -ftrapping-math -ftree-bit-ccp -ftree-builtin-call-dce
  97              	@ -ftree-ccp -ftree-ch -ftree-coalesce-vars -ftree-copy-prop -ftree-cselim
  98              	@ -ftree-dce -ftree-dominator-opts -ftree-dse -ftree-forwprop -ftree-fre
  99              	@ -ftree-loop-if-convert -ftree-loop-im -ftree-loop-ivcanon
 100              	@ -ftree-loop-optimize -ftree-parallelize-loops= -ftree-phiprop -ftree-pre
 101              	@ -ftree-pta -ftree-reassoc -ftree-scev-cprop -ftree-sink -ftree-slsr
 102              	@ -ftree-sra -ftree-switch-conversion -ftree-tail-merge -ftree-ter
 103              	@ -ftree-vrp -funit-at-a-time -fvar-tracking -fvar-tracking-assignments
 104              	@ -fverbose-asm -fzero-initialized-in-bss -masm-syntax-unified -mbe32
 105              	@ -mfix-cortex-m3-ldrd -mlittle-endian -mpic-data-is-text-relative
 106              	@ -msched-prolog -mthumb -munaligned-access -mvectorize-with-neon-quad
 107              	
 108              		.text
 109              	.Ltext0:
 110              		.cfi_sections	.debug_frame
 111              		.section	.text._Z13bluetoothInitmb,"ax",%progbits
 112              		.align	1
 113              		.global	_Z13bluetoothInitmb
 114              		.arch armv7-m
ARM GAS  /tmp/ccPUldNi.s 			page 3


 115              		.syntax unified
 116              		.thumb
 117              		.thumb_func
 118              		.fpu softvfp
 119              		.type	_Z13bluetoothInitmb, %function
 120              	_Z13bluetoothInitmb:
 121              	.LVL0:
 122              	.LFB464:
 123              		.file 1 "/home/ros/Downloads/opentx/radio/src/targets/common/arm/stm32/bluetooth_driver.cpp"
   1:/home/ros/Downloads/opentx/radio/src/targets/common/arm/stm32/bluetooth_driver.cpp **** /*
   2:/home/ros/Downloads/opentx/radio/src/targets/common/arm/stm32/bluetooth_driver.cpp ****  * Copyright (C) OpenTX
   3:/home/ros/Downloads/opentx/radio/src/targets/common/arm/stm32/bluetooth_driver.cpp ****  *
   4:/home/ros/Downloads/opentx/radio/src/targets/common/arm/stm32/bluetooth_driver.cpp ****  * Based on code named
   5:/home/ros/Downloads/opentx/radio/src/targets/common/arm/stm32/bluetooth_driver.cpp ****  *   th9x - http://code.google.com/p/th9x
   6:/home/ros/Downloads/opentx/radio/src/targets/common/arm/stm32/bluetooth_driver.cpp ****  *   er9x - http://code.google.com/p/er9x
   7:/home/ros/Downloads/opentx/radio/src/targets/common/arm/stm32/bluetooth_driver.cpp ****  *   gruvin9x - http://code.google.com/p/gruvin9x
   8:/home/ros/Downloads/opentx/radio/src/targets/common/arm/stm32/bluetooth_driver.cpp ****  *
   9:/home/ros/Downloads/opentx/radio/src/targets/common/arm/stm32/bluetooth_driver.cpp ****  * License GPLv2: http://www.gnu.org/licenses/gpl-2.0.html
  10:/home/ros/Downloads/opentx/radio/src/targets/common/arm/stm32/bluetooth_driver.cpp ****  *
  11:/home/ros/Downloads/opentx/radio/src/targets/common/arm/stm32/bluetooth_driver.cpp ****  * This program is free software; you can redistribute it and/or modify
  12:/home/ros/Downloads/opentx/radio/src/targets/common/arm/stm32/bluetooth_driver.cpp ****  * it under the terms of the GNU General Public License version 2 as
  13:/home/ros/Downloads/opentx/radio/src/targets/common/arm/stm32/bluetooth_driver.cpp ****  * published by the Free Software Foundation.
  14:/home/ros/Downloads/opentx/radio/src/targets/common/arm/stm32/bluetooth_driver.cpp ****  *
  15:/home/ros/Downloads/opentx/radio/src/targets/common/arm/stm32/bluetooth_driver.cpp ****  * This program is distributed in the hope that it will be useful,
  16:/home/ros/Downloads/opentx/radio/src/targets/common/arm/stm32/bluetooth_driver.cpp ****  * but WITHOUT ANY WARRANTY; without even the implied warranty of
  17:/home/ros/Downloads/opentx/radio/src/targets/common/arm/stm32/bluetooth_driver.cpp ****  * MERCHANTABILITY or FITNESS FOR A PARTICULAR PURPOSE.  See the
  18:/home/ros/Downloads/opentx/radio/src/targets/common/arm/stm32/bluetooth_driver.cpp ****  * GNU General Public License for more details.
  19:/home/ros/Downloads/opentx/radio/src/targets/common/arm/stm32/bluetooth_driver.cpp ****  */
  20:/home/ros/Downloads/opentx/radio/src/targets/common/arm/stm32/bluetooth_driver.cpp **** 
  21:/home/ros/Downloads/opentx/radio/src/targets/common/arm/stm32/bluetooth_driver.cpp **** #include "opentx.h"
  22:/home/ros/Downloads/opentx/radio/src/targets/common/arm/stm32/bluetooth_driver.cpp **** 
  23:/home/ros/Downloads/opentx/radio/src/targets/common/arm/stm32/bluetooth_driver.cpp **** #if !defined(BOOT)
  24:/home/ros/Downloads/opentx/radio/src/targets/common/arm/stm32/bluetooth_driver.cpp **** Fifo<uint8_t, BT_TX_FIFO_SIZE> btTxFifo;
  25:/home/ros/Downloads/opentx/radio/src/targets/common/arm/stm32/bluetooth_driver.cpp **** Fifo<uint8_t, BT_RX_FIFO_SIZE> btRxFifo;
  26:/home/ros/Downloads/opentx/radio/src/targets/common/arm/stm32/bluetooth_driver.cpp **** 
  27:/home/ros/Downloads/opentx/radio/src/targets/common/arm/stm32/bluetooth_driver.cpp **** #if defined(BLUETOOTH_PROBE)
  28:/home/ros/Downloads/opentx/radio/src/targets/common/arm/stm32/bluetooth_driver.cpp **** volatile uint8_t btChipPresent = 0;
  29:/home/ros/Downloads/opentx/radio/src/targets/common/arm/stm32/bluetooth_driver.cpp **** #endif
  30:/home/ros/Downloads/opentx/radio/src/targets/common/arm/stm32/bluetooth_driver.cpp **** 
  31:/home/ros/Downloads/opentx/radio/src/targets/common/arm/stm32/bluetooth_driver.cpp **** enum BluetoothWriteState
  32:/home/ros/Downloads/opentx/radio/src/targets/common/arm/stm32/bluetooth_driver.cpp **** {
  33:/home/ros/Downloads/opentx/radio/src/targets/common/arm/stm32/bluetooth_driver.cpp ****   BLUETOOTH_WRITE_IDLE,
  34:/home/ros/Downloads/opentx/radio/src/targets/common/arm/stm32/bluetooth_driver.cpp **** #if defined(BT_BRTS_GPIO_PIN)
  35:/home/ros/Downloads/opentx/radio/src/targets/common/arm/stm32/bluetooth_driver.cpp ****   BLUETOOTH_WRITE_INIT,
  36:/home/ros/Downloads/opentx/radio/src/targets/common/arm/stm32/bluetooth_driver.cpp **** #endif
  37:/home/ros/Downloads/opentx/radio/src/targets/common/arm/stm32/bluetooth_driver.cpp ****   BLUETOOTH_WRITING,
  38:/home/ros/Downloads/opentx/radio/src/targets/common/arm/stm32/bluetooth_driver.cpp **** #if defined(BT_BRTS_GPIO_PIN)
  39:/home/ros/Downloads/opentx/radio/src/targets/common/arm/stm32/bluetooth_driver.cpp ****   BLUETOOTH_WRITE_DONE
  40:/home/ros/Downloads/opentx/radio/src/targets/common/arm/stm32/bluetooth_driver.cpp **** #else
  41:/home/ros/Downloads/opentx/radio/src/targets/common/arm/stm32/bluetooth_driver.cpp ****   BLUETOOTH_WRITE_DONE = BLUETOOTH_WRITE_IDLE
  42:/home/ros/Downloads/opentx/radio/src/targets/common/arm/stm32/bluetooth_driver.cpp **** #endif
  43:/home/ros/Downloads/opentx/radio/src/targets/common/arm/stm32/bluetooth_driver.cpp **** };
  44:/home/ros/Downloads/opentx/radio/src/targets/common/arm/stm32/bluetooth_driver.cpp **** 
  45:/home/ros/Downloads/opentx/radio/src/targets/common/arm/stm32/bluetooth_driver.cpp **** volatile uint8_t bluetoothWriteState = BLUETOOTH_WRITE_IDLE;
  46:/home/ros/Downloads/opentx/radio/src/targets/common/arm/stm32/bluetooth_driver.cpp **** #endif
  47:/home/ros/Downloads/opentx/radio/src/targets/common/arm/stm32/bluetooth_driver.cpp **** 
  48:/home/ros/Downloads/opentx/radio/src/targets/common/arm/stm32/bluetooth_driver.cpp **** void bluetoothInit(uint32_t baudrate, bool enable)
ARM GAS  /tmp/ccPUldNi.s 			page 4


  49:/home/ros/Downloads/opentx/radio/src/targets/common/arm/stm32/bluetooth_driver.cpp **** {
 124              		.loc 1 49 1 view -0
 125              		.cfi_startproc
 126              		@ args = 0, pretend = 0, frame = 8
 127              		@ frame_needed = 0, uses_anonymous_args = 0
  50:/home/ros/Downloads/opentx/radio/src/targets/common/arm/stm32/bluetooth_driver.cpp ****   GPIO_InitTypeDef GPIO_InitStructure;
 128              		.loc 1 50 3 view .LVU1
  51:/home/ros/Downloads/opentx/radio/src/targets/common/arm/stm32/bluetooth_driver.cpp ****   GPIO_InitStructure.GPIO_Pin = BT_EN_GPIO_PIN;
 129              		.loc 1 51 3 view .LVU2
  52:/home/ros/Downloads/opentx/radio/src/targets/common/arm/stm32/bluetooth_driver.cpp ****   GPIO_InitStructure.GPIO_Mode = GPIO_Mode_OUT;
 130              		.loc 1 52 3 view .LVU3
  53:/home/ros/Downloads/opentx/radio/src/targets/common/arm/stm32/bluetooth_driver.cpp ****   GPIO_InitStructure.GPIO_OType = GPIO_OType_PP;
 131              		.loc 1 53 3 view .LVU4
  54:/home/ros/Downloads/opentx/radio/src/targets/common/arm/stm32/bluetooth_driver.cpp ****   GPIO_InitStructure.GPIO_PuPd = GPIO_PuPd_NOPULL;
 132              		.loc 1 54 3 view .LVU5
  55:/home/ros/Downloads/opentx/radio/src/targets/common/arm/stm32/bluetooth_driver.cpp ****   GPIO_InitStructure.GPIO_Speed = GPIO_Speed_2MHz;
 133              		.loc 1 55 3 view .LVU6
 134              	@ /home/ros/Downloads/opentx/radio/src/targets/common/arm/stm32/bluetooth_driver.cpp:49: {
  49:/home/ros/Downloads/opentx/radio/src/targets/common/arm/stm32/bluetooth_driver.cpp ****   GPIO_InitTypeDef GPIO_InitStructure;
 135              		.loc 1 49 1 is_stmt 0 view .LVU7
 136 0000 37B5     		push	{r0, r1, r2, r4, r5, lr}	@
 137              	.LCFI0:
 138              		.cfi_def_cfa_offset 24
 139              		.cfi_offset 4, -12
 140              		.cfi_offset 5, -8
 141              		.cfi_offset 14, -4
 142              	@ /home/ros/Downloads/opentx/radio/src/targets/common/arm/stm32/bluetooth_driver.cpp:52:   GPIO_Ini
  52:/home/ros/Downloads/opentx/radio/src/targets/common/arm/stm32/bluetooth_driver.cpp ****   GPIO_InitStructure.GPIO_OType = GPIO_OType_PP;
 143              		.loc 1 52 32 view .LVU8
 144 0002 0123     		movs	r3, #1	@ tmp113,
 145 0004 4FF48054 		mov	r4, #4096	@ tmp112,
 146              	@ /home/ros/Downloads/opentx/radio/src/targets/common/arm/stm32/bluetooth_driver.cpp:49: {
  49:/home/ros/Downloads/opentx/radio/src/targets/common/arm/stm32/bluetooth_driver.cpp ****   GPIO_InitTypeDef GPIO_InitStructure;
 147              		.loc 1 49 1 view .LVU9
 148 0008 0D46     		mov	r5, r1	@ enable, tmp118
 149              	@ /home/ros/Downloads/opentx/radio/src/targets/common/arm/stm32/bluetooth_driver.cpp:56:   GPIO_Ini
  56:/home/ros/Downloads/opentx/radio/src/targets/common/arm/stm32/bluetooth_driver.cpp ****   GPIO_Init(BT_EN_GPIO, &GPIO_InitStructure);
 150              		.loc 1 56 12 view .LVU10
 151 000a 0848     		ldr	r0, .L4	@,
 152              	.LVL1:
 153              		.loc 1 56 12 view .LVU11
 154 000c 6946     		mov	r1, sp	@,
 155              	.LVL2:
 156              	@ /home/ros/Downloads/opentx/radio/src/targets/common/arm/stm32/bluetooth_driver.cpp:52:   GPIO_Ini
  52:/home/ros/Downloads/opentx/radio/src/targets/common/arm/stm32/bluetooth_driver.cpp ****   GPIO_InitStructure.GPIO_OType = GPIO_OType_PP;
 157              		.loc 1 52 32 view .LVU12
 158 000e CDE90043 		strd	r4, r3, [sp]	@ tmp112, tmp113,
 159              		.loc 1 56 3 is_stmt 1 view .LVU13
 160              	@ /home/ros/Downloads/opentx/radio/src/targets/common/arm/stm32/bluetooth_driver.cpp:56:   GPIO_Ini
 161              		.loc 1 56 12 is_stmt 0 view .LVU14
 162 0012 FFF7FEFF 		bl	GPIO_Init		@
 163              	.LVL3:
  57:/home/ros/Downloads/opentx/radio/src/targets/common/arm/stm32/bluetooth_driver.cpp **** 
  58:/home/ros/Downloads/opentx/radio/src/targets/common/arm/stm32/bluetooth_driver.cpp **** #if defined(BT_BRTS_GPIO_PIN)
  59:/home/ros/Downloads/opentx/radio/src/targets/common/arm/stm32/bluetooth_driver.cpp ****   GPIO_InitStructure.GPIO_Pin = BT_BRTS_GPIO_PIN;
  60:/home/ros/Downloads/opentx/radio/src/targets/common/arm/stm32/bluetooth_driver.cpp ****   GPIO_Init(BT_BRTS_GPIO, &GPIO_InitStructure);
  61:/home/ros/Downloads/opentx/radio/src/targets/common/arm/stm32/bluetooth_driver.cpp ****   GPIO_SetBits(BT_BRTS_GPIO, BT_BRTS_GPIO_PIN);
ARM GAS  /tmp/ccPUldNi.s 			page 5


  62:/home/ros/Downloads/opentx/radio/src/targets/common/arm/stm32/bluetooth_driver.cpp **** #endif
  63:/home/ros/Downloads/opentx/radio/src/targets/common/arm/stm32/bluetooth_driver.cpp **** 
  64:/home/ros/Downloads/opentx/radio/src/targets/common/arm/stm32/bluetooth_driver.cpp **** #if defined(BT_BCTS_GPIO_PIN)
  65:/home/ros/Downloads/opentx/radio/src/targets/common/arm/stm32/bluetooth_driver.cpp ****   GPIO_InitStructure.GPIO_Pin = BT_BCTS_GPIO_PIN;
  66:/home/ros/Downloads/opentx/radio/src/targets/common/arm/stm32/bluetooth_driver.cpp ****   GPIO_InitStructure.GPIO_Mode = GPIO_Mode_IN;
  67:/home/ros/Downloads/opentx/radio/src/targets/common/arm/stm32/bluetooth_driver.cpp ****   GPIO_Init(BT_BCTS_GPIO, &GPIO_InitStructure);
  68:/home/ros/Downloads/opentx/radio/src/targets/common/arm/stm32/bluetooth_driver.cpp **** #endif
  69:/home/ros/Downloads/opentx/radio/src/targets/common/arm/stm32/bluetooth_driver.cpp **** 
  70:/home/ros/Downloads/opentx/radio/src/targets/common/arm/stm32/bluetooth_driver.cpp **** #if !defined(BOOT)
  71:/home/ros/Downloads/opentx/radio/src/targets/common/arm/stm32/bluetooth_driver.cpp ****   GPIO_PinAFConfig(BT_USART_GPIO, BT_TX_GPIO_PinSource, BT_GPIO_AF);
  72:/home/ros/Downloads/opentx/radio/src/targets/common/arm/stm32/bluetooth_driver.cpp ****   GPIO_PinAFConfig(BT_USART_GPIO, BT_RX_GPIO_PinSource, BT_GPIO_AF);
  73:/home/ros/Downloads/opentx/radio/src/targets/common/arm/stm32/bluetooth_driver.cpp **** 
  74:/home/ros/Downloads/opentx/radio/src/targets/common/arm/stm32/bluetooth_driver.cpp ****   GPIO_InitStructure.GPIO_Pin = BT_TX_GPIO_PIN | BT_RX_GPIO_PIN;
  75:/home/ros/Downloads/opentx/radio/src/targets/common/arm/stm32/bluetooth_driver.cpp ****   GPIO_InitStructure.GPIO_Mode = GPIO_Mode_AF;
  76:/home/ros/Downloads/opentx/radio/src/targets/common/arm/stm32/bluetooth_driver.cpp ****   GPIO_InitStructure.GPIO_PuPd = GPIO_PuPd_UP;
  77:/home/ros/Downloads/opentx/radio/src/targets/common/arm/stm32/bluetooth_driver.cpp ****   GPIO_Init(BT_USART_GPIO, &GPIO_InitStructure);
  78:/home/ros/Downloads/opentx/radio/src/targets/common/arm/stm32/bluetooth_driver.cpp **** 
  79:/home/ros/Downloads/opentx/radio/src/targets/common/arm/stm32/bluetooth_driver.cpp ****   USART_DeInit(BT_USART);
  80:/home/ros/Downloads/opentx/radio/src/targets/common/arm/stm32/bluetooth_driver.cpp ****   USART_InitTypeDef USART_InitStructure;
  81:/home/ros/Downloads/opentx/radio/src/targets/common/arm/stm32/bluetooth_driver.cpp ****   USART_InitStructure.USART_BaudRate = baudrate;
  82:/home/ros/Downloads/opentx/radio/src/targets/common/arm/stm32/bluetooth_driver.cpp ****   USART_InitStructure.USART_Parity = USART_Parity_No;
  83:/home/ros/Downloads/opentx/radio/src/targets/common/arm/stm32/bluetooth_driver.cpp ****   USART_InitStructure.USART_StopBits = USART_StopBits_1;
  84:/home/ros/Downloads/opentx/radio/src/targets/common/arm/stm32/bluetooth_driver.cpp ****   USART_InitStructure.USART_WordLength = USART_WordLength_8b;
  85:/home/ros/Downloads/opentx/radio/src/targets/common/arm/stm32/bluetooth_driver.cpp ****   USART_InitStructure.USART_HardwareFlowControl = USART_HardwareFlowControl_None;
  86:/home/ros/Downloads/opentx/radio/src/targets/common/arm/stm32/bluetooth_driver.cpp ****   USART_InitStructure.USART_Mode = USART_Mode_Tx | USART_Mode_Rx;
  87:/home/ros/Downloads/opentx/radio/src/targets/common/arm/stm32/bluetooth_driver.cpp ****   USART_Init(BT_USART, &USART_InitStructure);
  88:/home/ros/Downloads/opentx/radio/src/targets/common/arm/stm32/bluetooth_driver.cpp ****   USART_Cmd(BT_USART, ENABLE);
  89:/home/ros/Downloads/opentx/radio/src/targets/common/arm/stm32/bluetooth_driver.cpp **** 
  90:/home/ros/Downloads/opentx/radio/src/targets/common/arm/stm32/bluetooth_driver.cpp ****   USART_ITConfig(BT_USART, USART_IT_RXNE, ENABLE);
  91:/home/ros/Downloads/opentx/radio/src/targets/common/arm/stm32/bluetooth_driver.cpp ****   NVIC_SetPriority(BT_USART_IRQn, 6);
  92:/home/ros/Downloads/opentx/radio/src/targets/common/arm/stm32/bluetooth_driver.cpp ****   NVIC_EnableIRQ(BT_USART_IRQn);
  93:/home/ros/Downloads/opentx/radio/src/targets/common/arm/stm32/bluetooth_driver.cpp **** 
  94:/home/ros/Downloads/opentx/radio/src/targets/common/arm/stm32/bluetooth_driver.cpp ****   bluetoothWriteState = BLUETOOTH_WRITE_IDLE;
  95:/home/ros/Downloads/opentx/radio/src/targets/common/arm/stm32/bluetooth_driver.cpp **** 
  96:/home/ros/Downloads/opentx/radio/src/targets/common/arm/stm32/bluetooth_driver.cpp ****   btRxFifo.clear();
  97:/home/ros/Downloads/opentx/radio/src/targets/common/arm/stm32/bluetooth_driver.cpp ****   btTxFifo.clear();
  98:/home/ros/Downloads/opentx/radio/src/targets/common/arm/stm32/bluetooth_driver.cpp **** #endif
  99:/home/ros/Downloads/opentx/radio/src/targets/common/arm/stm32/bluetooth_driver.cpp **** 
 100:/home/ros/Downloads/opentx/radio/src/targets/common/arm/stm32/bluetooth_driver.cpp ****   if (enable)
 164              		.loc 1 100 3 is_stmt 1 view .LVU15
 165              	@ /home/ros/Downloads/opentx/radio/src/targets/common/arm/stm32/bluetooth_driver.cpp:101:     GPIO_
 101:/home/ros/Downloads/opentx/radio/src/targets/common/arm/stm32/bluetooth_driver.cpp ****     GPIO_ResetBits(BT_EN_GPIO, BT_EN_GPIO_PIN);
 166              		.loc 1 101 19 is_stmt 0 view .LVU16
 167 0016 2146     		mov	r1, r4	@, tmp112
 168 0018 0448     		ldr	r0, .L4	@,
 169              	@ /home/ros/Downloads/opentx/radio/src/targets/common/arm/stm32/bluetooth_driver.cpp:100:   if (ena
 100:/home/ros/Downloads/opentx/radio/src/targets/common/arm/stm32/bluetooth_driver.cpp ****     GPIO_ResetBits(BT_EN_GPIO, BT_EN_GPIO_PIN);
 170              		.loc 1 100 3 view .LVU17
 171 001a 1DB1     		cbz	r5, .L2	@ enable,
 172              		.loc 1 101 5 is_stmt 1 view .LVU18
 173              	@ /home/ros/Downloads/opentx/radio/src/targets/common/arm/stm32/bluetooth_driver.cpp:101:     GPIO_
 174              		.loc 1 101 19 is_stmt 0 view .LVU19
 175 001c FFF7FEFF 		bl	GPIO_ResetBits		@
 176              	.LVL4:
 177              	.L1:
 178              	@ /home/ros/Downloads/opentx/radio/src/targets/common/arm/stm32/bluetooth_driver.cpp:104: }
 102:/home/ros/Downloads/opentx/radio/src/targets/common/arm/stm32/bluetooth_driver.cpp ****   else
ARM GAS  /tmp/ccPUldNi.s 			page 6


 103:/home/ros/Downloads/opentx/radio/src/targets/common/arm/stm32/bluetooth_driver.cpp ****     GPIO_SetBits(BT_EN_GPIO, BT_EN_GPIO_PIN);
 104:/home/ros/Downloads/opentx/radio/src/targets/common/arm/stm32/bluetooth_driver.cpp **** }
 179              		.loc 1 104 1 view .LVU20
 180 0020 03B0     		add	sp, sp, #12	@,,
 181              	.LCFI1:
 182              		.cfi_remember_state
 183              		.cfi_def_cfa_offset 12
 184              		@ sp needed	@
 185 0022 30BD     		pop	{r4, r5, pc}	@
 186              	.L2:
 187              	.LCFI2:
 188              		.cfi_restore_state
 103:/home/ros/Downloads/opentx/radio/src/targets/common/arm/stm32/bluetooth_driver.cpp **** }
 189              		.loc 1 103 5 is_stmt 1 view .LVU21
 190              	@ /home/ros/Downloads/opentx/radio/src/targets/common/arm/stm32/bluetooth_driver.cpp:103:     GPIO_
 103:/home/ros/Downloads/opentx/radio/src/targets/common/arm/stm32/bluetooth_driver.cpp **** }
 191              		.loc 1 103 17 is_stmt 0 view .LVU22
 192 0024 FFF7FEFF 		bl	GPIO_SetBits		@
 193              	.LVL5:
 194              	@ /home/ros/Downloads/opentx/radio/src/targets/common/arm/stm32/bluetooth_driver.cpp:104: }
 195              		.loc 1 104 1 view .LVU23
 196 0028 FAE7     		b	.L1		@
 197              	.L5:
 198 002a 00BF     		.align	2
 199              	.L4:
 200 002c 00100240 		.word	1073876992
 201              		.cfi_endproc
 202              	.LFE464:
 203              		.size	_Z13bluetoothInitmb, .-_Z13bluetoothInitmb
 204              		.text
 205              	.Letext0:
 206              		.file 2 "/usr/include/newlib/c++/9.2.1/cstdlib"
 207              		.file 3 "/usr/include/newlib/c++/9.2.1/bits/std_abs.h"
 208              		.file 4 "/usr/include/newlib/c++/9.2.1/cstring"
 209              		.file 5 "/usr/include/newlib/c++/9.2.1/arm-none-eabi/thumb/v7-m/nofp/bits/c++config.h"
 210              		.file 6 "/usr/lib/gcc/arm-none-eabi/9.2.1/include/stddef.h"
 211              		.file 7 "/usr/include/newlib/sys/_types.h"
 212              		.file 8 "/usr/include/newlib/sys/reent.h"
 213              		.file 9 "/usr/include/newlib/sys/lock.h"
 214              		.file 10 "/usr/include/newlib/stdlib.h"
 215              		.file 11 "/usr/include/newlib/c++/9.2.1/stdlib.h"
 216              		.file 12 "/usr/lib/gcc/arm-none-eabi/9.2.1/include/stdint.h"
 217              		.file 13 "/home/ros/Downloads/opentx/radio/src/opentx_types.h"
 218              		.file 14 "/home/ros/Downloads/opentx/radio/src/targets/common/arm/stm32/cpu_id.h"
 219              		.file 15 "/home/ros/Downloads/opentx/radio/src/thirdparty/STM32F2xx_StdPeriph_Lib_V1.1.0/Libraries
 220              		.file 16 "/home/ros/Downloads/opentx/radio/src/thirdparty/STM32F2xx_StdPeriph_Lib_V1.1.0/Libraries
 221              		.file 17 "/home/ros/Downloads/opentx/radio/src/thirdparty/STM32F2xx_StdPeriph_Lib_V1.1.0/Libraries
 222              		.file 18 "/home/ros/Downloads/opentx/radio/src/thirdparty/STM32F2xx_StdPeriph_Lib_V1.1.0/Libraries
 223              		.file 19 "/home/ros/Downloads/opentx/radio/src/thirdparty/STM32_USB-Host-Device_Lib_V2.2.0/Librari
 224              		.file 20 "/home/ros/Downloads/opentx/radio/src/thirdparty/STM32_USB-Host-Device_Lib_V2.2.0/Librari
 225              		.file 21 "/home/ros/Downloads/opentx/radio/src/thirdparty/STM32_USB-Host-Device_Lib_V2.2.0/Librari
 226              		.file 22 "/home/ros/Downloads/opentx/radio/src/thirdparty/STM32_USB-Host-Device_Lib_V2.2.0/Librari
 227              		.file 23 "/home/ros/Downloads/opentx/radio/src/thirdparty/STM32_USB-Host-Device_Lib_V2.2.0/Librari
 228              		.file 24 "/home/ros/Downloads/opentx/radio/src/targets/common/arm/stm32/usbd_desc.h"
 229              		.file 25 "/home/ros/Downloads/opentx/radio/src/targets/taranis/board.h"
 230              		.file 26 "/home/ros/Downloads/opentx/radio/src/dataconstants.h"
 231              		.file 27 "/home/ros/Downloads/opentx/radio/src/globals.h"
ARM GAS  /tmp/ccPUldNi.s 			page 7


 232              		.file 28 "/home/ros/Downloads/opentx/radio/src/rtc.h"
 233              		.file 29 "/home/ros/Downloads/opentx/radio/src/datastructs.h"
 234              		.file 30 "/home/ros/Downloads/opentx/radio/src/myeeprom.h"
 235              		.file 31 "/home/ros/Downloads/opentx/radio/src/io/frsky_sport.h"
 236              		.file 32 "/home/ros/Downloads/opentx/radio/src/timers.h"
 237              		.file 33 "/home/ros/Downloads/opentx/radio/src/storage/storage.h"
 238              		.file 34 "/home/ros/Downloads/opentx/radio/src/storage/eeprom_common.h"
 239              		.file 35 "/home/ros/Downloads/opentx/radio/src/storage/eeprom_rlc.h"
 240              		.file 36 "/home/ros/Downloads/opentx/radio/src/pulses/pulses_common.h"
 241              		.file 37 "/home/ros/Downloads/opentx/radio/src/pulses/pxx.h"
 242              		.file 38 "/home/ros/Downloads/opentx/radio/src/crc.h"
 243              		.file 39 "/home/ros/Downloads/opentx/radio/src/pulses/pxx1.h"
 244              		.file 40 "/home/ros/Downloads/opentx/radio/src/fifo.h"
 245              		.file 41 "/home/ros/Downloads/opentx/radio/src/io/frsky_pxx2.h"
 246              		.file 42 "/home/ros/Downloads/opentx/radio/src/pulses/pxx2.h"
 247              		.file 43 "/home/ros/Downloads/opentx/radio/src/pulses/multi.h"
 248              		.file 44 "/usr/include/newlib/string.h"
 249              		.file 45 "/home/ros/Downloads/opentx/radio/src/telemetry/telemetry_holders.h"
 250              		.file 46 "/home/ros/Downloads/opentx/radio/src/telemetry/frsky.h"
 251              		.file 47 "/home/ros/Downloads/opentx/radio/src/telemetry/crossfire.h"
 252              		.file 48 "/home/ros/Downloads/opentx/radio/src/telemetry/ghost.h"
 253              		.file 49 "/home/ros/Downloads/opentx/radio/src/telemetry/multi.h"
 254              		.file 50 "/home/ros/Downloads/opentx/radio/src/telemetry/telemetry.h"
 255              		.file 51 "/home/ros/Downloads/opentx/radio/src/telemetry/telemetry_sensors.h"
 256              		.file 52 "/home/ros/Downloads/opentx/radio/src/pulses/modules_helpers.h"
 257              		.file 53 "/home/ros/Downloads/opentx/radio/src/thirdparty/FatFs/integer.h"
 258              		.file 54 "/home/ros/Downloads/opentx/radio/src/thirdparty/FatFs/ff.h"
 259              		.file 55 "/home/ros/Downloads/opentx/radio/src/pulses/pulses.h"
 260              		.file 56 "/home/ros/Downloads/opentx/radio/src/opentx.h"
 261              		.file 57 "/home/ros/Downloads/opentx/radio/src/gui/128x64/lcd.h"
 262              		.file 58 "/home/ros/Downloads/opentx/radio/src/keys.h"
 263              		.file 59 "/home/ros/Downloads/opentx/radio/src/gui/common/stdlcd/menus.h"
 264              		.file 60 "/home/ros/Downloads/opentx/radio/src/gui/128x64/menus.h"
 265              		.file 61 "/home/ros/Downloads/opentx/radio/src/audio.h"
 266              		.file 62 "/home/ros/Downloads/opentx/radio/src/gui/128x64/../common/stdlcd/popups.h"
 267              		.file 63 "/home/ros/Downloads/opentx/radio/src/gui/128x64/gui.h"
 268              		.file 64 "/home/ros/Downloads/opentx/radio/src/gvars.h"
 269              		.file 65 "/home/ros/Downloads/opentx/radio/src/trainer.h"
 270              		.file 66 "/home/ros/Downloads/opentx/radio/src/translations.h"
 271              		.file 67 "/home/ros/Downloads/opentx/radio/src/fonts.h"
 272              		.file 68 "/home/ros/Downloads/opentx/radio/src/haptic.h"
 273              		.file 69 "/home/ros/Downloads/opentx/radio/src/sdcard.h"
 274              		.file 70 "/home/ros/Downloads/opentx/radio/src/bluetooth.h"
 275              		.file 71 "<built-in>"
 276              		.file 72 "/home/ros/Downloads/opentx/radio/src/pulses/afhds3.h"